(dp0
S'NB_TunedSmote_100_yes'
p1
(lp2
F0.4597701149425288
aF0.4352872896111434
aF0.4467960023515579
aF0.4238563983786913
aF0.42656162070906023
aF0.4409356725146199
aF0.464328899637243
aF0.4055710306406685
aF0.44971892567145527
aF0.45040840140023336
asS'NB_TunedLearner_1000_yes'
p3
(lp4
F0.7460087082728591
aF0.7363770250368189
aF0.7507163323782235
aF0.7396449704142012
aF0.76
aF0.7232142857142857
aF0.7325581395348837
aF0.7346938775510204
aF0.7547169811320754
aF0.7777777777777778
asS'NB_TunedSmote_1000_yes'
p5
(lp6
F0.574762946754194
aF0.5848915482423335
aF0.5939393939393939
aF0.5824817518248175
aF0.5766158315177923
aF0.5752017608217167
aF0.5788690476190476
aF0.5765895953757225
aF0.6050420168067226
aF0.5802650957290133
asS'NB_Smote_100_yes'
p7
(lp8
F0.4455032757593806
aF0.4711055276381909
aF0.44627054361567636
aF0.45460012026458213
aF0.4497323022010707
aF0.4506024096385542
aF0.4711842938568714
aF0.4538834951456311
aF0.4520123839009288
aF0.4487102579484104
asS'NB_TunedLearner_700_yes'
p9
(lp10
F0.7147147147147147
aF0.7343283582089551
aF0.7202380952380952
aF0.6758832565284177
aF0.718796992481203
aF0.7099697885196374
aF0.719640179910045
aF0.7140695915279878
aF0.7123695976154991
aF0.696969696969697
asS'NB_TunedSmote_700_yes'
p11
(lp12
F0.5389876880984952
aF0.5733041575492341
aF0.5590778097982708
aF0.5527426160337553
aF0.5628140703517588
aF0.566397652237711
aF0.5543710021321961
aF0.5675090252707581
aF0.5662299854439593
aF0.5318302387267905
asS'NB_Smote_700_yes'
p13
(lp14
F0.5735080058224163
aF0.5748148148148149
aF0.5804093567251462
aF0.5455820476858345
aF0.556907659269864
aF0.5622317596566524
aF0.5588652482269503
aF0.556907659269864
aF0.5813097866077999
aF0.563768115942029
asS'NB_Naive_100_yes'
p15
(lp16
F0.4802867383512545
aF0.5401709401709403
aF0.6066666666666667
aF0.5185185185185185
aF0.5123674911660778
aF0.5441941074523396
aF0.5272407732864675
aF0.532871972318339
aF0.53125
aF0.5157894736842106
asS'NB_Naive_400_yes'
p17
(lp18
F0.6839694656488551
aF0.6432
aF0.6759259259259259
aF0.7101669195751138
aF0.7134146341463415
aF0.7007751937984497
aF0.6518987341772152
aF0.6898638426626323
aF0.7040971168437026
aF0.6780185758513931
asS'NB_Naive_700_yes'
p19
(lp20
F0.6749611197511665
aF0.7209653092006034
aF0.7459618208516887
aF0.6583463338533542
aF0.7275449101796407
aF0.6971080669710805
aF0.7207207207207207
aF0.6625
aF0.713855421686747
aF0.7190332326283988
asS'NB_TunedLearner_100_yes'
p21
(lp22
F0.5131810193321618
aF0.555366269165247
aF0.5724020442930153
aF0.5536332179930796
aF0.4874551971326165
aF0.5277777777777778
aF0.5757575757575758
aF0.5150976909413855
aF0.5235602094240838
aF0.5381944444444444
asS'NB_Naive_1000_yes'
p23
(lp24
F0.741506646971935
aF0.7208271787296898
aF0.7278106508875739
aF0.7579250720461096
aF0.7337278106508878
aF0.7336244541484717
aF0.7448680351906158
aF0.75
aF0.7332339791356184
aF0.7172619047619048
asS'NB_Smote_1000_yes'
p25
(lp26
F0.5630791161796151
aF0.5988112927191679
aF0.5950037850113551
aF0.5848214285714286
aF0.6065318818040436
aF0.5847953216374269
aF0.5883233532934132
aF0.5960061443932412
aF0.5826538176426983
aF0.5861561119293077
asS'NB_TunedSmote_400_yes'
p27
(lp28
F0.5258910558170813
aF0.5280748663101604
aF0.5512367491166077
aF0.557774607703281
aF0.5558739255014327
aF0.5566860465116279
aF0.5655677655677656
aF0.5490472829922372
aF0.537940379403794
aF0.5304755525787006
asS'NB_Smote_400_yes'
p29
(lp30
F0.5623229461756374
aF0.5486600846262342
aF0.556657223796034
aF0.5597122302158273
aF0.5076209410205433
aF0.5728788977519942
aF0.5308056872037915
aF0.5555555555555555
aF0.546984572230014
aF0.5448028673835125
asS'NB_TunedLearner_400_yes'
p31
(lp32
F0.6965944272445821
aF0.6972477064220183
aF0.6811819595645412
aF0.6820276497695853
aF0.6939393939393939
aF0.6993865030674846
aF0.7040971168437026
aF0.6791277258566978
aF0.6941896024464832
aF0.6892307692307692
as.