(dp0
S'NB_TunedSmote_100_yes'
p1
(lp2
F0.17480719794344474
aF0.19514563106796115
aF0.17924528301886788
aF0.15859766277128548
aF0.17689995706311723
aF0.1910420475319927
aF0.15922014622258326
aF0.1769834350479512
aF0.17167019027484143
aF0.17987533392698127
asS'NB_TunedLearner_1000_yes'
p3
(lp4
F0.26925409338993334
aF0.28272251308900526
aF0.28405422853453843
aF0.2724296005239031
aF0.2647956070774863
aF0.2756005056890013
aF0.27295285359801486
aF0.26830769230769236
aF0.27997407647440054
aF0.2840079628400797
asS'NB_TunedSmote_1000_yes'
p5
(lp6
F0.2752880921895006
aF0.2921646746347942
aF0.2715894868585732
aF0.2665021591610117
aF0.29301075268817206
aF0.2628089210367691
aF0.28252299605781866
aF0.28053691275167786
aF0.2588652482269503
aF0.2771392081736909
asS'NB_Smote_100_yes'
p7
(lp8
F0.1900369003690037
aF0.18892508143322476
aF0.19523809523809524
aF0.18386491557223264
aF0.1807017543859649
aF0.19759036144578312
aF0.18497109826589594
aF0.16582914572864324
aF0.19144981412639406
aF0.19038642789820923
asS'NB_TunedLearner_700_yes'
p9
(lp10
F0.2615476904619076
aF0.27616645649432536
aF0.2597864768683274
aF0.24795321637426898
aF0.2502857142857143
aF0.2568593111500292
aF0.2573662056524354
aF0.2597864768683274
aF0.2593486127864898
aF0.25897586815773976
asS'NB_TunedSmote_700_yes'
p11
(lp12
F0.25458851391355836
aF0.2721003134796238
aF0.24373956594323876
aF0.2589231699939504
aF0.24047878128400435
aF0.25754060324825984
aF0.26873065015479874
aF0.251441753171857
aF0.24622271964185788
aF0.2508792497069168
asS'NB_Smote_700_yes'
p13
(lp14
F0.25260718424101974
aF0.2571090047393365
aF0.2608695652173913
aF0.2611311672683514
aF0.2587822014051522
aF0.2659380692167577
aF0.25248392752776155
aF0.2585596221959858
aF0.25332562174667445
aF0.2511737089201878
asS'NB_Naive_100_yes'
p15
(lp16
I0
aI0
aI0
aI0
aI0
aI0
aI0
aI0
aI0
aI0
asS'NB_Naive_400_yes'
p17
(lp18
F0.05128205128205128
aF0.060085836909871244
aF0.0603448275862069
aF0.07692307692307693
aF0.1092436974789916
aF0.10833333333333332
aF0.043103448275862065
aF0.0851063829787234
aF0.05172413793103449
aF0.07692307692307693
asS'NB_Naive_700_yes'
p19
(lp20
F0.11522633744855967
aF0.11570247933884298
aF0.1092436974789916
aF0.1092436974789916
aF0.11715481171548117
aF0.06837606837606837
aF0.15510204081632653
aF0.1234567901234568
aF0.14754098360655737
aF0.07692307692307693
asS'NB_TunedLearner_100_yes'
p21
(lp22
F0.18894009216589863
aF0.17479139218269654
aF0.19484777517564403
aF0.1855864342910975
aF0.1841502519468621
aF0.1818181818181818
aF0.19061302681992337
aF0.18846694796061883
aF0.18097447795823665
aF0.18458781362007168
asS'NB_Naive_1000_yes'
p23
(lp24
F0.15510204081632653
aF0.18326693227091637
aF0.11666666666666667
aF0.14814814814814814
aF0.10743801652892561
aF0.0759493670886076
aF0.1532258064516129
aF0.18326693227091634
aF0.125
aF0.17073170731707318
asS'NB_Smote_1000_yes'
p25
(lp26
F0.2723880597014925
aF0.282413350449294
aF0.26510480887792853
aF0.2864686468646865
aF0.27533460803059273
aF0.27365728900255754
aF0.272784412319296
aF0.2725575606720597
aF0.2742642454602379
aF0.2714646464646464
asS'NB_TunedSmote_400_yes'
p27
(lp28
F0.21669980119284293
aF0.23051948051948054
aF0.22776911076443057
aF0.24319822320932816
aF0.2475644699140401
aF0.2526193247962748
aF0.23117709437963946
aF0.23117154811715482
aF0.2421171171171171
aF0.23684210526315788
asS'NB_Smote_400_yes'
p29
(lp30
F0.2463276836158192
aF0.23712446351931327
aF0.23726977248104011
aF0.2388732394366197
aF0.24327354260089687
aF0.245125348189415
aF0.24166211044286495
aF0.24466891133557797
aF0.23626373626373626
aF0.24103139013452918
asS'NB_TunedLearner_400_yes'
p31
(lp32
F0.2382022471910112
aF0.2498560736902706
aF0.24322830292979544
aF0.24070992789794785
aF0.24384787472035793
aF0.24376417233560094
aF0.2408026755852843
aF0.23969213853765808
aF0.24771689497716898
aF0.24178272980501392
as.