(dp0
S'NB_TunedSmote_100_yes'
p1
(lp2
F0.3056910569105691
aF0.31517094017094016
aF0.2983367983367984
aF0.3181085437936593
aF0.32275416890801506
aF0.3157333333333333
aF0.30696699842849656
aF0.3093864708966964
aF0.2998909487459106
aF0.31939978563772775
asS'NB_TunedLearner_1000_yes'
p3
(lp4
F0.43386243386243384
aF0.4052044609665427
aF0.4219858156028369
aF0.44639718804920914
aF0.43617021276595747
aF0.426056338028169
aF0.41544117647058826
aF0.4556521739130435
aF0.4144144144144144
aF0.38766519823788553
asS'NB_TunedSmote_1000_yes'
p5
(lp6
F0.408930669800235
aF0.3814207650273224
aF0.38490978676872606
aF0.38554216867469876
aF0.38419319429198684
aF0.3970671178793006
aF0.3879262157629961
aF0.38824181919023854
aF0.3858485351022664
aF0.3828167482327352
asS'NB_Smote_100_yes'
p7
(lp8
F0.3093980992608236
aF0.31618435155412644
aF0.3052577845839714
aF0.2966915688367129
aF0.2977642276422764
aF0.29925452609158676
aF0.3053515215110178
aF0.3125
aF0.31335436382754994
aF0.31021704605611433
asS'NB_TunedLearner_700_yes'
p9
(lp10
F0.368839427662957
aF0.38357644516477585
aF0.36267232237539765
aF0.3867403314917127
aF0.3694474539544962
aF0.3683923705722071
aF0.3747963063552417
aF0.36706869428421607
aF0.3722431414739107
aF0.38758845944474685
asS'NB_TunedSmote_700_yes'
p11
(lp12
F0.35606454971369084
aF0.38926174496644295
aF0.3846594161419576
aF0.35881435257410293
aF0.37942122186495175
aF0.37282608695652175
aF0.3767643865363735
aF0.37962466487935653
aF0.3786724700761697
aF0.3595744680851064
asS'NB_Smote_700_yes'
p13
(lp14
F0.3732357553580763
aF0.3535510627268014
aF0.37959407569939657
aF0.3804226918798665
aF0.35523613963039014
aF0.3680851063829787
aF0.3658155289213132
aF0.3732357553580763
aF0.37540453074433655
aF0.3697297297297297
asS'NB_Naive_100_yes'
p15
(lp16
F0.0053475935828877
aF0.010666666666666666
aF0.010582010582010583
aF0.005333333333333333
aF0.005347593582887701
aF0.005333333333333333
aF0.0053475935828877
aF0.0053475935828877
aF0.005319148936170213
aF0.005333333333333334
asS'NB_Naive_400_yes'
p17
(lp18
F0.18691588785046728
aF0.16822429906542058
aF0.17882352941176471
aF0.17494089834515367
aF0.10243902439024391
aF0.16355140186915887
aF0.15865384615384615
aF0.0966183574879227
aF0.19907407407407407
aF0.14563106796116504
asS'NB_Naive_700_yes'
p19
(lp20
F0.32727272727272727
aF0.3128964059196617
aF0.27983539094650206
aF0.2360248447204969
aF0.26552462526766596
aF0.2616033755274262
aF0.23861171366594358
aF0.3002028397565923
aF0.31225296442687744
aF0.2911392405063291
asS'NB_TunedLearner_100_yes'
p21
(lp22
F0.3164021164021164
aF0.31823329558323893
aF0.30106382978723406
aF0.30316014997321905
aF0.321656050955414
aF0.3230352303523036
aF0.3049917718047175
aF0.29916317991631797
aF0.3157327586206896
aF0.3148844707146695
asS'NB_Naive_1000_yes'
p23
(lp24
F0.38150289017341044
aF0.3970037453183521
aF0.37093690248565964
aF0.3732809430255403
aF0.37786259541984735
aF0.4119850187265917
aF0.3696498054474709
aF0.41904761904761906
aF0.3188976377952756
aF0.3552123552123552
asS'NB_Smote_1000_yes'
p25
(lp26
F0.38246575342465755
aF0.39337016574585637
aF0.3798701298701298
aF0.39775280898876403
aF0.37526881720430105
aF0.4004550625711035
aF0.3801916932907348
aF0.37629146275149533
aF0.38542241855328546
aF0.384573002754821
asS'NB_TunedSmote_400_yes'
p27
(lp28
F0.35892006352567496
aF0.3601694915254237
aF0.352336928608115
aF0.35927505330490406
aF0.35432667690732206
aF0.34881320949432404
aF0.36618257261410786
aF0.3508771929824561
aF0.35691987513007284
aF0.3638320775026911
asS'NB_Smote_400_yes'
p29
(lp30
F0.3480466768138001
aF0.34879032258064513
aF0.36363636363636365
aF0.360655737704918
aF0.3530666666666667
aF0.3496993987975952
aF0.3611831862999481
aF0.35780765253360913
aF0.35244608100999475
aF0.35814679854242576
asS'NB_TunedLearner_400_yes'
p31
(lp32
F0.3485772357723577
aF0.3578174186778594
aF0.3624733475479744
aF0.35427394438722964
aF0.3577148958889482
aF0.35598377281947263
aF0.3637333333333333
aF0.3455497382198954
aF0.354888773926539
aF0.3626666666666667
as.