(dp0
S'NB_TunedSmote_100_yes'
p1
(lp2
F0.16184971098265896
aF0.15751937984496125
aF0.15112443778110943
aF0.1564281190626979
aF0.1636650868878357
aF0.1531701192718142
aF0.17031302591719957
aF0.1555954518252543
aF0.1640838650865998
aF0.16223067173637518
asS'NB_TunedLearner_1000_yes'
p3
(lp4
F0.5463320463320464
aF0.59105098855359
aF0.6059322033898306
aF0.5717213114754098
aF0.5688073394495412
aF0.5821205821205822
aF0.5928270042194091
aF0.5950413223140496
aF0.5534465534465535
aF0.6114101184068892
asS'NB_TunedSmote_1000_yes'
p5
(lp6
F0.5610236220472441
aF0.5568627450980391
aF0.5873836608066184
aF0.5497536945812808
aF0.5541463414634146
aF0.5539070227497527
aF0.5797101449275363
aF0.5693877551020408
aF0.5384615384615384
aF0.5826446280991736
asS'NB_Smote_100_yes'
p7
(lp8
F0.15695744038635678
aF0.15096547688706846
aF0.1572827417380661
aF0.1541295670862757
aF0.1588360109123977
aF0.15286624203821655
aF0.1554531490015361
aF0.15668481548699334
aF0.15648510382184772
aF0.15585185185185185
asS'NB_TunedLearner_700_yes'
p9
(lp10
F0.5370892018779343
aF0.49688334817453256
aF0.5404376784015222
aF0.5122171945701358
aF0.5370548604427333
aF0.5395614871306005
aF0.5364928909952605
aF0.5255338904363974
aF0.5308411214953271
aF0.5285171102661598
asS'NB_TunedSmote_700_yes'
p11
(lp12
F0.5387523629489605
aF0.5192660550458715
aF0.5273250239693192
aF0.5085662759242561
aF0.5364928909952605
aF0.4748322147651007
aF0.5053763440860215
aF0.5310734463276837
aF0.5350795135640786
aF0.5068119891008175
asS'NB_Smote_700_yes'
p13
(lp14
F0.5
aF0.4891961970613656
aF0.5026929982046678
aF0.5004452359750667
aF0.4759493670886076
aF0.4926279271465741
aF0.5127272727272727
aF0.4918032786885246
aF0.4804753820033956
aF0.48246364414029086
asS'NB_Naive_100_yes'
p15
(lp16
I0
aI0
aI0
aI0
aI0
aI0
aI0
aI0
aI0
aI0
asS'NB_Naive_400_yes'
p17
(lp18
F0.046822742474916385
aF0.02033898305084746
aF0.046822742474916385
aF0.027027027027027025
aF0.05980066445182724
aF0.027027027027027025
aF0.03367003367003367
aF0.046822742474916385
aF0.02033898305084746
aF0.06622516556291391
asS'NB_Naive_700_yes'
p19
(lp20
F0.4289544235924933
aF0.44854881266490765
aF0.45263157894736844
aF0.493573264781491
aF0.4675324675324675
aF0.4961636828644501
aF0.4619422572178477
aF0.4635416666666667
aF0.44854881266490765
aF0.4361702127659574
asS'NB_TunedLearner_100_yes'
p21
(lp22
F0.16200941915227626
aF0.15839808726838017
aF0.1599500156201187
aF0.15607649599012954
aF0.15870040612308653
aF0.15607985480943737
aF0.1679974449057809
aF0.15323565323565325
aF0.16329113924050634
aF0.1581679389312977
asS'NB_Naive_1000_yes'
p23
(lp24
F0.47814910025706947
aF0.46073298429319365
aF0.513853904282116
aF0.46073298429319365
aF0.45263157894736844
aF0.5162907268170426
aF0.46073298429319365
aF0.48843187660668386
aF0.4647519582245431
aF0.44210526315789467
asS'NB_Smote_1000_yes'
p25
(lp26
F0.5674044265593561
aF0.5583657587548637
aF0.5532746823069403
aF0.530232558139535
aF0.5314553990610329
aF0.5314553990610329
aF0.5754245754245754
aF0.5480494766888676
aF0.5403304178814383
aF0.5541463414634146
asS'NB_TunedSmote_400_yes'
p27
(lp28
F0.36933333333333335
aF0.3881856540084388
aF0.34692635423006696
aF0.38892733564013837
aF0.35582010582010587
aF0.363031914893617
aF0.3784511784511785
aF0.3709677419354839
aF0.38414217361585784
aF0.37137069547602974
asS'NB_Smote_400_yes'
p29
(lp30
F0.3506329113924051
aF0.35114503816793896
aF0.3427172582619339
aF0.3532401524777636
aF0.3387779794313369
aF0.34215384615384614
aF0.35361947469570787
aF0.3454210202827289
aF0.34665027658266745
aF0.35263500325309044
asS'NB_TunedLearner_400_yes'
p31
(lp32
F0.3561128526645768
aF0.3724696356275304
aF0.37200000000000005
aF0.36885245901639346
aF0.3520408163265306
aF0.3769491525423728
aF0.3705179282868526
aF0.372972972972973
aF0.35732647814910024
aF0.35496183206106874
as.