(dp0
S'Linear_SVM_Naive_700_Macro_F'
p1
(lp2
F0.5742541657391024
aF0.56547897504258
aF0.5757271828762721
aF0.5738899727270832
aF0.5587717745246007
aF0.5727448877606574
aF0.5680074233272092
aF0.5846259202047271
aF0.570678535636796
aF0.55549126305574
asS'Linear_SVM_Naive_1900_Macro_F'
p3
(lp4
F0.6058965607400777
aF0.6006410680777955
aF0.6078041736770733
aF0.6019324575598767
aF0.60208990922335
aF0.6055562999387646
aF0.6057084868719795
aF0.5918625329820387
aF0.6157205726681115
aF0.6126830131585873
asS'Linear_SVM_Naive_1000_Macro_F'
p5
(lp6
F0.6026949801084317
aF0.5864940099363151
aF0.5923615374317627
aF0.5766971590402389
aF0.5874245593064622
aF0.5879398089554239
aF0.5825620814482931
aF0.583012497216419
aF0.5971131434614667
aF0.5876059804148027
asS'Linear_SVM_Naive_1600_Macro_F'
p7
(lp8
F0.5909140003450063
aF0.5960893625799616
aF0.6016734413622753
aF0.6028104428265962
aF0.5972921533960788
aF0.5959925631086587
aF0.6072075192259859
aF0.6256408812303552
aF0.586687578801126
aF0.5939973824046426
asS'Linear_SVM_Naive_100_Macro_F'
p9
(lp10
F0.4464115746084685
aF0.45928106740823477
aF0.4523712448590201
aF0.4392797459377548
aF0.4232144159037011
aF0.4487976932340369
aF0.42877164205145657
aF0.44470462924899
aF0.43889304716343447
aF0.45340449935311233
asS'Linear_SVM_Naive_1300_Macro_F'
p11
(lp12
F0.5880042073907734
aF0.5989651158443486
aF0.5946886742475245
aF0.596649156626647
aF0.6018022289288935
aF0.6006660536436023
aF0.5962955134589488
aF0.5914462445600438
aF0.5985349279841519
aF0.6029785816010317
asS'Linear_SVM_Naive_400_Macro_F'
p13
(lp14
F0.537672966771929
aF0.5299025901658371
aF0.5235694671228169
aF0.5267321589114838
aF0.5363468332893596
aF0.5184370012803683
aF0.5386101074861256
aF0.5259196901109089
aF0.5293500204695454
aF0.5443488147266506
as.