(dp0
S'Linear_SVM_Naive_700_Macro_F'
p1
(lp2
F0.5098863591427152
aF0.4924046797476714
aF0.5430137309022216
aF0.5097683127210302
aF0.5077832256938294
aF0.5169884544234299
aF0.5203323958982845
aF0.5034958494545277
aF0.5025127228775597
aF0.5158729295510409
asS'Linear_SVM_Naive_1900_Macro_F'
p3
(lp4
F0.5486890369013269
aF0.556446322356971
aF0.569068048602753
aF0.5717215591780788
aF0.5406154040025996
aF0.5498930601337926
aF0.5628378479396623
aF0.555776627580066
aF0.5678338573223082
aF0.5401832439143335
asS'Linear_SVM_Naive_1000_Macro_F'
p5
(lp6
F0.5326810728976956
aF0.5317017873477021
aF0.5446817800752871
aF0.5143612284486029
aF0.5369513391082008
aF0.5459149310742966
aF0.5217368457540706
aF0.5075496940265566
aF0.5220484743715825
aF0.5452162800219233
asS'Linear_SVM_Naive_1600_Macro_F'
p7
(lp8
F0.5525849898530305
aF0.5562037780386525
aF0.5427092766917484
aF0.5464551297486817
aF0.5644617363002429
aF0.5628173686287304
aF0.5263512205411615
aF0.5569983444833249
aF0.5264061522871745
aF0.5472657454796411
asS'Linear_SVM_Naive_100_Macro_F'
p9
(lp10
F0.3367452272562116
aF0.34049744213146665
aF0.405468091559147
aF0.36871895017142403
aF0.35785879593282
aF0.3677803081384541
aF0.3503794007421497
aF0.3441895871509161
aF0.37913592927120826
aF0.3933906771978769
asS'Linear_SVM_Naive_1300_Macro_F'
p11
(lp12
F0.5335484596901741
aF0.5518667191758347
aF0.5347875883135009
aF0.5328903062796
aF0.5635436972473874
aF0.5498396542714032
aF0.538764429730162
aF0.5555467684541027
aF0.5431084915278325
aF0.5376332779411676
asS'Linear_SVM_Naive_400_Macro_F'
p13
(lp14
F0.4840672244631593
aF0.49397015915544806
aF0.48051414942275533
aF0.462146246784497
aF0.49742342495967873
aF0.49182116186814656
aF0.4869556573878989
aF0.48217853554643936
aF0.47907531853277224
aF0.4913580898868428
as.