(dp0
S'Linear_SVM_Naive_700_Macro_F'
p1
(lp2
F0.8400404311024109
aF0.8495007671536244
aF0.8491283410021568
aF0.8577297261512403
aF0.836500054451225
aF0.8513401962056482
aF0.8423158821580086
aF0.8508525932364819
aF0.8443675062777778
aF0.8488383045440361
asS'Linear_SVM_Naive_1900_Macro_F'
p3
(lp4
F0.8756670770881075
aF0.8678944381030702
aF0.8648458644321585
aF0.8793316792122146
aF0.8535086560818085
aF0.8806596901209196
aF0.8689133599125415
aF0.866915075887494
aF0.8610174335712908
aF0.8666022308312483
asS'Linear_SVM_Naive_1000_Macro_F'
p5
(lp6
F0.8471603516899688
aF0.8521635993165729
aF0.8480266760051082
aF0.854800180407705
aF0.8562784164509855
aF0.8565988317312434
aF0.847538220569186
aF0.8625499115758777
aF0.8413285238386483
aF0.8639114730660937
asS'Linear_SVM_Naive_1600_Macro_F'
p7
(lp8
F0.8547547473552152
aF0.8634654395585536
aF0.8759150789673694
aF0.8800592279600343
aF0.8652805017888483
aF0.8680671399516688
aF0.8724635584482776
aF0.8612622593204998
aF0.856927492579115
aF0.8681332307060374
asS'Linear_SVM_Naive_100_Macro_F'
p9
(lp10
F0.6896825094778419
aF0.6940184810697714
aF0.6832621076595636
aF0.6640093820744113
aF0.7017582054341573
aF0.6829179185572521
aF0.6784638342084451
aF0.679064136405591
aF0.6984131322918947
aF0.6859144706226893
asS'Linear_SVM_Naive_1300_Macro_F'
p11
(lp12
F0.8703056431319811
aF0.8593811605855878
aF0.8615645151881767
aF0.8646395581876518
aF0.8652512494382674
aF0.8682367493963272
aF0.8700679517650657
aF0.8631047935202073
aF0.8590002356626175
aF0.8467331058428563
asS'Linear_SVM_Naive_400_Macro_F'
p13
(lp14
F0.8139672095774169
aF0.7999927924141788
aF0.8031604384731389
aF0.8123649384100177
aF0.7897766474458972
aF0.7892632561525952
aF0.8014706868313635
aF0.8108892014002993
aF0.7966283897942639
aF0.8105686175534245
as.