(dp0
I100
(dp1
S'linear_SVM'
p2
(dp3
S'toaru-majutsu-no-index'
p4
(lp5
I0
aI0
aI0
aI0
aI0
aI0
aI0
aI0
aI0
aI0
aI0
aI0
aI0
aI0
aI0
aI0
aI0
aI0
aI0
aI0
aI0
aI0
aI0
aI0
aI0
asS'mean_weighted'
p6
(lp7
cnumpy.core.multiarray
scalar
p8
(cnumpy
dtype
p9
(S'f8'
p10
I0
I1
tp11
Rp12
(I3
S'<'
p13
NNNI-1
I-1
I0
tp14
bS'np@\xe1\x81Z\xdc?'
p15
tp16
Rp17
ag8
(g12
S'\xf4\xf5\xb8,&\xef\xda?'
p18
tp19
Rp20
ag8
(g12
S'>\xb2\xcdH\xe7\xe9\xd9?'
p21
tp22
Rp23
ag8
(g12
S'(\xa2\xd5\xb9\xcc<\xe1?'
p24
tp25
Rp26
ag8
(g12
S'B\xfci\xb0\x16\x10\xe2?'
p27
tp28
Rp29
ag8
(g12
S'np@\xe1\x81Z\xdc?'
p30
tp31
Rp32
ag8
(g12
S'\xf4\xf5\xb8,&\xef\xda?'
p33
tp34
Rp35
ag8
(g12
S'>\xb2\xcdH\xe7\xe9\xd9?'
p36
tp37
Rp38
ag8
(g12
S'(\xa2\xd5\xb9\xcc<\xe1?'
p39
tp40
Rp41
ag8
(g12
S'B\xfci\xb0\x16\x10\xe2?'
p42
tp43
Rp44
ag8
(g12
S'np@\xe1\x81Z\xdc?'
p45
tp46
Rp47
ag8
(g12
S'\xf4\xf5\xb8,&\xef\xda?'
p48
tp49
Rp50
ag8
(g12
S'>\xb2\xcdH\xe7\xe9\xd9?'
p51
tp52
Rp53
ag8
(g12
S'(\xa2\xd5\xb9\xcc<\xe1?'
p54
tp55
Rp56
ag8
(g12
S'B\xfci\xb0\x16\x10\xe2?'
p57
tp58
Rp59
ag8
(g12
S'np@\xe1\x81Z\xdc?'
p60
tp61
Rp62
ag8
(g12
S'\xf4\xf5\xb8,&\xef\xda?'
p63
tp64
Rp65
ag8
(g12
S'>\xb2\xcdH\xe7\xe9\xd9?'
p66
tp67
Rp68
ag8
(g12
S'(\xa2\xd5\xb9\xcc<\xe1?'
p69
tp70
Rp71
ag8
(g12
S'B\xfci\xb0\x16\x10\xe2?'
p72
tp73
Rp74
ag8
(g12
S'np@\xe1\x81Z\xdc?'
p75
tp76
Rp77
ag8
(g12
S'\xf4\xf5\xb8,&\xef\xda?'
p78
tp79
Rp80
ag8
(g12
S'>\xb2\xcdH\xe7\xe9\xd9?'
p81
tp82
Rp83
ag8
(g12
S'(\xa2\xd5\xb9\xcc<\xe1?'
p84
tp85
Rp86
ag8
(g12
S'B\xfci\xb0\x16\x10\xe2?'
p87
tp88
Rp89
asS'others'
p90
(lp91
F0.6629318394024276
aF0.5866099893730075
aF0.558858501783591
aF0.6090425531914893
aF0.5867768595041323
aF0.6629318394024276
aF0.5866099893730075
aF0.558858501783591
aF0.6090425531914893
aF0.5867768595041323
aF0.6629318394024276
aF0.5866099893730075
aF0.558858501783591
aF0.6090425531914893
aF0.5867768595041323
aF0.6629318394024276
aF0.5866099893730075
aF0.558858501783591
aF0.6090425531914893
aF0.5867768595041323
aF0.6629318394024276
aF0.5866099893730075
aF0.558858501783591
aF0.6090425531914893
aF0.5867768595041323
asS'manga-production'
p92
(lp93
I0
aI0
aI0
aI0
aI0
aI0
aI0
aI0
aI0
aI0
aI0
aI0
aI0
aI0
aI0
aI0
aI0
aI0
aI0
aI0
aI0
aI0
aI0
aI0
aI0
asS'culture'
p94
(lp95
I0
aI0
aI0
aI0
aI0
aI0
aI0
aI0
aI0
aI0
aI0
aI0
aI0
aI0
aI0
aI0
aI0
aI0
aI0
aI0
aI0
aI0
aI0
aI0
aI0
asS'neon-genesis-evangelion'
p96
(lp97
I0
aI0
aI0
aI0
aI0
aI0
aI0
aI0
aI0
aI0
aI0
aI0
aI0
aI0
aI0
aI0
aI0
aI0
aI0
aI0
aI0
aI0
aI0
aI0
aI0
asS'pokemon'
p98
(lp99
I0
aI0
aI0
aI0
aI0
aI0
aI0
aI0
aI0
aI0
aI0
aI0
aI0
aI0
aI0
aI0
aI0
aI0
aI0
aI0
aI0
aI0
aI0
aI0
aI0
asS'tropes'
p100
(lp101
F0.21739130434782608
aF0.2857142857142857
aI0
aF0.15384615384615385
aI0
aF0.21739130434782608
aF0.2857142857142857
aI0
aF0.15384615384615385
aI0
aF0.21739130434782608
aF0.2857142857142857
aI0
aF0.15384615384615385
aI0
aF0.21739130434782608
aF0.2857142857142857
aI0
aF0.15384615384615385
aI0
aF0.21739130434782608
aF0.2857142857142857
aI0
aF0.15384615384615385
aI0
asS'fullmetal-alchemist'
p102
(lp103
I0
aI0
aI0
aI0
aI0
aI0
aI0
aI0
aI0
aI0
aI0
aI0
aI0
aI0
aI0
aI0
aI0
aI0
aI0
aI0
aI0
aI0
aI0
aI0
aI0
asS'fate-stay-night'
p104
(lp105
I0
aI0
aI0
aI0
aI0
aI0
aI0
aI0
aI0
aI0
aI0
aI0
aI0
aI0
aI0
aI0
aI0
aI0
aI0
aI0
aI0
aI0
aI0
aI0
aI0
asS'japanese-language'
p106
(lp107
I0
aI0
aI0
aI0
aI0
aI0
aI0
aI0
aI0
aI0
aI0
aI0
aI0
aI0
aI0
aI0
aI0
aI0
aI0
aI0
aI0
aI0
aI0
aI0
aI0
asS'one-piece'
p108
(lp109
F0.15384615384615385
aF0.0784313725490196
aF0.028169014084507043
aI0
aF0.05128205128205128
aF0.15384615384615385
aF0.0784313725490196
aF0.028169014084507043
aI0
aF0.05128205128205128
aF0.15384615384615385
aF0.0784313725490196
aF0.028169014084507043
aI0
aF0.05128205128205128
aF0.15384615384615385
aF0.0784313725490196
aF0.028169014084507043
aI0
aF0.05128205128205128
aF0.15384615384615385
aF0.0784313725490196
aF0.028169014084507043
aI0
aF0.05128205128205128
asS'music'
p110
(lp111
I0
aI0
aI0
aI0
aI0
aI0
aI0
aI0
aI0
aI0
aI0
aI0
aI0
aI0
aI0
aI0
aI0
aI0
aI0
aI0
aI0
aI0
aI0
aI0
aI0
asS'sword-art-online'
p112
(lp113
I0
aI0
aI0
aI0
aI0
aI0
aI0
aI0
aI0
aI0
aI0
aI0
aI0
aI0
aI0
aI0
aI0
aI0
aI0
aI0
aI0
aI0
aI0
aI0
aI0
asS'naruto'
p114
(lp115
F0.6527777777777777
aF0.6898954703832753
aF0.5592417061611374
aF0.5891472868217055
aF0.5660377358490566
aF0.6527777777777777
aF0.6898954703832753
aF0.5592417061611374
aF0.5891472868217055
aF0.5660377358490566
aF0.6527777777777777
aF0.6898954703832753
aF0.5592417061611374
aF0.5891472868217055
aF0.5660377358490566
aF0.6527777777777777
aF0.6898954703832753
aF0.5592417061611374
aF0.5891472868217055
aF0.5660377358490566
aF0.6527777777777777
aF0.6898954703832753
aF0.5592417061611374
aF0.5891472868217055
aF0.5660377358490566
asS'shingeki-no-kyojin'
p116
(lp117
I0
aF0.1818181818181818
aI0
aI0
aF0.15384615384615385
aI0
aF0.1818181818181818
aI0
aI0
aF0.15384615384615385
aI0
aF0.1818181818181818
aI0
aI0
aF0.15384615384615385
aI0
aF0.1818181818181818
aI0
aI0
aF0.15384615384615385
aI0
aF0.1818181818181818
aI0
aI0
aF0.15384615384615385
asS'resources'
p118
(lp119
I0
aI0
aI0
aI0
aI0
aI0
aI0
aI0
aI0
aI0
aI0
aI0
aI0
aI0
aI0
aI0
aI0
aI0
aI0
aI0
aI0
aI0
aI0
aI0
aI0
asS'monogatari-series'
p120
(lp121
I0
aI0
aI0
aI0
aI0
aI0
aI0
aI0
aI0
aI0
aI0
aI0
aI0
aI0
aI0
aI0
aI0
aI0
aI0
aI0
aI0
aI0
aI0
aI0
aI0
asS'anime-production'
p122
(lp123
F0.07407407407407407
aF0.0909090909090909
aI0
aF0.12121212121212122
aI0
aF0.07407407407407407
aF0.0909090909090909
aI0
aF0.12121212121212122
aI0
aF0.07407407407407407
aF0.0909090909090909
aI0
aF0.12121212121212122
aI0
aF0.07407407407407407
aF0.0909090909090909
aI0
aF0.12121212121212122
aI0
aF0.07407407407407407
aF0.0909090909090909
aI0
aF0.12121212121212122
aI0
asS'anime-history'
p124
(lp125
I0
aI0
aI0
aI0
aI0
aI0
aI0
aI0
aI0
aI0
aI0
aI0
aI0
aI0
aI0
aI0
aI0
aI0
aI0
aI0
aI0
aI0
aI0
aI0
aI0
asS'bleach'
p126
(lp127
I0
aI0
aI0
aI0
aI0
aI0
aI0
aI0
aI0
aI0
aI0
aI0
aI0
aI0
aI0
aI0
aI0
aI0
aI0
aI0
aI0
aI0
aI0
aI0
aI0
asS'from-the-new-world'
p128
(lp129
F0.19999999999999998
aI0
aI0
aI0
aF0.19999999999999998
aI0
aI0
aI0
aF0.19999999999999998
aI0
aI0
aI0
aF0.19999999999999998
aI0
aI0
aI0
aF0.19999999999999998
aI0
aI0
aI0
asS'madoka-magica'
p130
(lp131
I0
aI0
aI0
aI0
aI0
aI0
aI0
aI0
aI0
aI0
aI0
aI0
aI0
aI0
aI0
aI0
aI0
aI0
aI0
aI0
aI0
aI0
aI0
aI0
aI0
asS'dragon-ball'
p132
(lp133
I0
aI0
aI0
aI0
aI0
aI0
aI0
aI0
aI0
aI0
aI0
aI0
aI0
aI0
aI0
aI0
aI0
aI0
aI0
aI0
aI0
aI0
aI0
aI0
aI0
asS'fairy-tail'
p134
(lp135
F0.18181818181818182
aF0.18181818181818182
aF0.09756097560975609
aI0
aF0.28571428571428575
aF0.18181818181818182
aF0.18181818181818182
aF0.09756097560975609
aI0
aF0.28571428571428575
aF0.18181818181818182
aF0.18181818181818182
aF0.09756097560975609
aI0
aF0.28571428571428575
aF0.18181818181818182
aF0.18181818181818182
aF0.09756097560975609
aI0
aF0.28571428571428575
aF0.18181818181818182
aF0.18181818181818182
aF0.09756097560975609
aI0
aF0.28571428571428575
asS'death-note'
p136
(lp137
F0.7
aF0.56
aF0.6666666666666665
aF0.810126582278481
aF0.75
aF0.7
aF0.56
aF0.6666666666666665
aF0.810126582278481
aF0.75
aF0.7
aF0.56
aF0.6666666666666665
aF0.810126582278481
aF0.75
aF0.7
aF0.56
aF0.6666666666666665
aF0.810126582278481
aF0.75
aF0.7
aF0.56
aF0.6666666666666665
aF0.810126582278481
aF0.75
asS'code-geass'
p138
(lp139
I0
aI0
aI0
aI0
aI0
aI0
aI0
aI0
aI0
aI0
aI0
aI0
aI0
aI0
aI0
aI0
aI0
aI0
aI0
aI0
aI0
aI0
aI0
aI0
aI0
asS'mean'
p140
(lp141
g8
(g12
S'9\x7f\x01x\xcf\xa1\xbb?'
p142
tp143
Rp144
ag8
(g12
S'\xda\xdfF\x1aH\xc2\xbc?'
p145
tp146
Rp147
ag8
(g12
S'\xd8hV\x93\xf3\xb7\xb7?'
p148
tp149
Rp150
ag8
(g12
S'\xff\xec\x91\x94\x1b\\\xbb?'
p151
tp152
Rp153
ag8
(g12
S'nH\xac[\xfby\xbd?'
p154
tp155
Rp156
ag8
(g12
S'9\x7f\x01x\xcf\xa1\xbb?'
p157
tp158
Rp159
ag8
(g12
S'\xda\xdfF\x1aH\xc2\xbc?'
p160
tp161
Rp162
ag8
(g12
S'\xd8hV\x93\xf3\xb7\xb7?'
p163
tp164
Rp165
ag8
(g12
S'\xff\xec\x91\x94\x1b\\\xbb?'
p166
tp167
Rp168
ag8
(g12
S'nH\xac[\xfby\xbd?'
p169
tp170
Rp171
ag8
(g12
S'9\x7f\x01x\xcf\xa1\xbb?'
p172
tp173
Rp174
ag8
(g12
S'\xda\xdfF\x1aH\xc2\xbc?'
p175
tp176
Rp177
ag8
(g12
S'\xd8hV\x93\xf3\xb7\xb7?'
p178
tp179
Rp180
ag8
(g12
S'\xff\xec\x91\x94\x1b\\\xbb?'
p181
tp182
Rp183
ag8
(g12
S'nH\xac[\xfby\xbd?'
p184
tp185
Rp186
ag8
(g12
S'9\x7f\x01x\xcf\xa1\xbb?'
p187
tp188
Rp189
ag8
(g12
S'\xda\xdfF\x1aH\xc2\xbc?'
p190
tp191
Rp192
ag8
(g12
S'\xd8hV\x93\xf3\xb7\xb7?'
p193
tp194
Rp195
ag8
(g12
S'\xff\xec\x91\x94\x1b\\\xbb?'
p196
tp197
Rp198
ag8
(g12
S'nH\xac[\xfby\xbd?'
p199
tp200
Rp201
ag8
(g12
S'9\x7f\x01x\xcf\xa1\xbb?'
p202
tp203
Rp204
ag8
(g12
S'\xda\xdfF\x1aH\xc2\xbc?'
p205
tp206
Rp207
ag8
(g12
S'\xd8hV\x93\xf3\xb7\xb7?'
p208
tp209
Rp210
ag8
(g12
S'\xff\xec\x91\x94\x1b\\\xbb?'
p211
tp212
Rp213
ag8
(g12
S'nH\xac[\xfby\xbd?'
p214
tp215
Rp216
asS'identification-request'
p217
(lp218
F0.2873563218390805
aF0.6026490066225165
aF0.7763713080168776
aF0.8159771754636234
aF0.8303341902313626
aF0.2873563218390805
aF0.6026490066225165
aF0.7763713080168776
aF0.8159771754636234
aF0.8303341902313626
aF0.2873563218390805
aF0.6026490066225165
aF0.7763713080168776
aF0.8159771754636234
aF0.8303341902313626
aF0.2873563218390805
aF0.6026490066225165
aF0.7763713080168776
aF0.8159771754636234
aF0.8303341902313626
aF0.2873563218390805
aF0.6026490066225165
aF0.7763713080168776
aF0.8159771754636234
aF0.8303341902313626
asS'terminology'
p219
(lp220
I0
aI0
aI0
aI0
aI0
aI0
aI0
aI0
aI0
aI0
aI0
aI0
aI0
aI0
aI0
aI0
aI0
aI0
aI0
aI0
aI0
aI0
aI0
aI0
aI0
asS'hunter-x-hunter'
p221
(lp222
I0
aI0
aI0
aI0
aI0
aI0
aI0
aI0
aI0
aI0
aI0
aI0
aI0
aI0
aI0
aI0
aI0
aI0
aI0
aI0
aI0
aI0
aI0
aI0
aI0
assS'cartClassifier'
p223
(dp224
g4
(lp225
I0
aI0
aF0.25
aI0
aI0
aI0
aI0
aF0.25
aI0
aI0
aI0
aI0
aF0.25
aI0
aI0
aI0
aI0
aF0.25
aI0
aI0
aI0
aI0
aF0.25
aI0
aI0
asg6
(lp226
g8
(g12
S'\xf2w\xe0\xfe\xb4F\xd8?'
p227
tp228
Rp229
ag8
(g12
S'"\xe7\xd7^V\xa1\xd7?'
p230
tp231
Rp232
ag8
(g12
S'\xe9\xab\xf8\xb8!#\xd9?'
p233
tp234
Rp235
ag8
(g12
S'n\xb3\xac\x998\xb1\xde?'
p236
tp237
Rp238
ag8
(g12
S'p\t\x0f\xf5\xcb\x93\xde?'
p239
tp240
Rp241
ag8
(g12
S'\xf2w\xe0\xfe\xb4F\xd8?'
p242
tp243
Rp244
ag8
(g12
S'"\xe7\xd7^V\xa1\xd7?'
p245
tp246
Rp247
ag8
(g12
S'\xe9\xab\xf8\xb8!#\xd9?'
p248
tp249
Rp250
ag8
(g12
S'n\xb3\xac\x998\xb1\xde?'
p251
tp252
Rp253
ag8
(g12
S'p\t\x0f\xf5\xcb\x93\xde?'
p254
tp255
Rp256
ag8
(g12
S'\xf2w\xe0\xfe\xb4F\xd8?'
p257
tp258
Rp259
ag8
(g12
S'"\xe7\xd7^V\xa1\xd7?'
p260
tp261
Rp262
ag8
(g12
S'\xe9\xab\xf8\xb8!#\xd9?'
p263
tp264
Rp265
ag8
(g12
S'n\xb3\xac\x998\xb1\xde?'
p266
tp267
Rp268
ag8
(g12
S'p\t\x0f\xf5\xcb\x93\xde?'
p269
tp270
Rp271
ag8
(g12
S'\xf2w\xe0\xfe\xb4F\xd8?'
p272
tp273
Rp274
ag8
(g12
S'"\xe7\xd7^V\xa1\xd7?'
p275
tp276
Rp277
ag8
(g12
S'\xe9\xab\xf8\xb8!#\xd9?'
p278
tp279
Rp280
ag8
(g12
S'n\xb3\xac\x998\xb1\xde?'
p281
tp282
Rp283
ag8
(g12
S'p\t\x0f\xf5\xcb\x93\xde?'
p284
tp285
Rp286
ag8
(g12
S'\xf2w\xe0\xfe\xb4F\xd8?'
p287
tp288
Rp289
ag8
(g12
S'"\xe7\xd7^V\xa1\xd7?'
p290
tp291
Rp292
ag8
(g12
S'\xe9\xab\xf8\xb8!#\xd9?'
p293
tp294
Rp295
ag8
(g12
S'n\xb3\xac\x998\xb1\xde?'
p296
tp297
Rp298
ag8
(g12
S'p\t\x0f\xf5\xcb\x93\xde?'
p299
tp300
Rp301
asg90
(lp302
F0.5185185185185185
aF0.4941860465116279
aF0.46925566343042074
aF0.48918469217970056
aF0.46206896551724136
aF0.5185185185185185
aF0.4941860465116279
aF0.46925566343042074
aF0.48918469217970056
aF0.46206896551724136
aF0.5185185185185185
aF0.4941860465116279
aF0.46925566343042074
aF0.48918469217970056
aF0.46206896551724136
aF0.5185185185185185
aF0.4941860465116279
aF0.46925566343042074
aF0.48918469217970056
aF0.46206896551724136
aF0.5185185185185185
aF0.4941860465116279
aF0.46925566343042074
aF0.48918469217970056
aF0.46206896551724136
asg92
(lp303
F0.1818181818181818
aF0.16666666666666666
aF0.16666666666666666
aI0
aI0
aF0.1818181818181818
aF0.16666666666666666
aF0.16666666666666666
aI0
aI0
aF0.1818181818181818
aF0.16666666666666666
aF0.16666666666666666
aI0
aI0
aF0.1818181818181818
aF0.16666666666666666
aF0.16666666666666666
aI0
aI0
aF0.1818181818181818
aF0.16666666666666666
aF0.16666666666666666
aI0
aI0
asg94
(lp304
I0
aI0
aF0.13333333333333333
aI0
aI0
aI0
aI0
aF0.13333333333333333
aI0
aI0
aI0
aI0
aF0.13333333333333333
aI0
aI0
aI0
aI0
aF0.13333333333333333
aI0
aI0
aI0
aI0
aF0.13333333333333333
aI0
aI0
asg96
(lp305
I0
aI0
aI0
aI0
aI0
aI0
aI0
aI0
aI0
aI0
aI0
aI0
aI0
aI0
aI0
aI0
aI0
aI0
aI0
aI0
aI0
aI0
aI0
aI0
aI0
asg98
(lp306
I0
aI0
aI0
aI0
aI0
aI0
aI0
aI0
aI0
aI0
aI0
aI0
aI0
aI0
aI0
aI0
aI0
aI0
aI0
aI0
aI0
aI0
aI0
aI0
aI0
asg100
(lp307
F0.16393442622950818
aF0.07017543859649124
aF0.15384615384615385
aF0.12121212121212123
aI0
aF0.16393442622950818
aF0.07017543859649124
aF0.15384615384615385
aF0.12121212121212123
aI0
aF0.16393442622950818
aF0.07017543859649124
aF0.15384615384615385
aF0.12121212121212123
aI0
aF0.16393442622950818
aF0.07017543859649124
aF0.15384615384615385
aF0.12121212121212123
aI0
aF0.16393442622950818
aF0.07017543859649124
aF0.15384615384615385
aF0.12121212121212123
aI0
asg102
(lp308
I0
aF0.03636363636363636
aF0.03508771929824562
aF0.07692307692307691
aF0.06666666666666667
aI0
aF0.03636363636363636
aF0.03508771929824562
aF0.07692307692307691
aF0.06666666666666667
aI0
aF0.03636363636363636
aF0.03508771929824562
aF0.07692307692307691
aF0.06666666666666667
aI0
aF0.03636363636363636
aF0.03508771929824562
aF0.07692307692307691
aF0.06666666666666667
aI0
aF0.03636363636363636
aF0.03508771929824562
aF0.07692307692307691
aF0.06666666666666667
asg104
(lp309
I0
aF0.07407407407407407
aI0
aI0
aI0
aI0
aF0.07407407407407407
aI0
aI0
aI0
aI0
aF0.07407407407407407
aI0
aI0
aI0
aI0
aF0.07407407407407407
aI0
aI0
aI0
aI0
aF0.07407407407407407
aI0
aI0
aI0
asg106
(lp310
I0
aI0
aF0.3076923076923077
aI0
aI0
aI0
aI0
aF0.3076923076923077
aI0
aI0
aI0
aI0
aF0.3076923076923077
aI0
aI0
aI0
aI0
aF0.3076923076923077
aI0
aI0
aI0
aI0
aF0.3076923076923077
aI0
aI0
asg108
(lp311
F0.10309278350515463
aF0.11904761904761904
aF0.16363636363636364
aF0.0923076923076923
aF0.03125
aF0.10309278350515463
aF0.11904761904761904
aF0.16363636363636364
aF0.0923076923076923
aF0.03125
aF0.10309278350515463
aF0.11904761904761904
aF0.16363636363636364
aF0.0923076923076923
aF0.03125
aF0.10309278350515463
aF0.11904761904761904
aF0.16363636363636364
aF0.0923076923076923
aF0.03125
aF0.10309278350515463
aF0.11904761904761904
aF0.16363636363636364
aF0.0923076923076923
aF0.03125
asg110
(lp312
I0
aI0
aI0
aI0
aI0
aI0
aI0
aI0
aI0
aI0
aI0
aI0
aI0
aI0
aI0
aI0
aI0
aI0
aI0
aI0
aI0
aI0
aI0
aI0
aI0
asg112
(lp313
I0
aI0
aF0.09523809523809525
aI0
aI0
aI0
aI0
aF0.09523809523809525
aI0
aI0
aI0
aI0
aF0.09523809523809525
aI0
aI0
aI0
aI0
aF0.09523809523809525
aI0
aI0
aI0
aI0
aF0.09523809523809525
aI0
aI0
asg114
(lp314
F0.6267605633802817
aF0.6329113924050632
aF0.45871559633027525
aF0.4413793103448276
aF0.5
aF0.6267605633802817
aF0.6329113924050632
aF0.45871559633027525
aF0.4413793103448276
aF0.5
aF0.6267605633802817
aF0.6329113924050632
aF0.45871559633027525
aF0.4413793103448276
aF0.5
aF0.6267605633802817
aF0.6329113924050632
aF0.45871559633027525
aF0.4413793103448276
aF0.5
aF0.6267605633802817
aF0.6329113924050632
aF0.45871559633027525
aF0.4413793103448276
aF0.5
asg116
(lp315
I0
aI0
aF0.16666666666666666
aF0.13333333333333333
aI0
aI0
aI0
aF0.16666666666666666
aF0.13333333333333333
aI0
aI0
aI0
aF0.16666666666666666
aF0.13333333333333333
aI0
aI0
aI0
aF0.16666666666666666
aF0.13333333333333333
aI0
aI0
aI0
aF0.16666666666666666
aF0.13333333333333333
aI0
asg118
(lp316
I0
aI0
aI0
aI0
aI0
aI0
aI0
aI0
aI0
aI0
aI0
aI0
aI0
aI0
aI0
aI0
aI0
aI0
aI0
aI0
aI0
aI0
aI0
aI0
aI0
asg120
(lp317
I0
aI0
aF0.09090909090909091
aF0.35294117647058826
aI0
aI0
aI0
aF0.09090909090909091
aF0.35294117647058826
aI0
aI0
aI0
aF0.09090909090909091
aF0.35294117647058826
aI0
aI0
aI0
aF0.09090909090909091
aF0.35294117647058826
aI0
aI0
aI0
aF0.09090909090909091
aF0.35294117647058826
aI0
asg122
(lp318
F0.20202020202020202
aF0.19444444444444445
aF0.2222222222222222
aF0.23076923076923075
aF0.1923076923076923
aF0.20202020202020202
aF0.19444444444444445
aF0.2222222222222222
aF0.23076923076923075
aF0.1923076923076923
aF0.20202020202020202
aF0.19444444444444445
aF0.2222222222222222
aF0.23076923076923075
aF0.1923076923076923
aF0.20202020202020202
aF0.19444444444444445
aF0.2222222222222222
aF0.23076923076923075
aF0.1923076923076923
aF0.20202020202020202
aF0.19444444444444445
aF0.2222222222222222
aF0.23076923076923075
aF0.1923076923076923
asg124
(lp319
I0
aI0
aI0
aI0
aI0
aI0
aI0
aI0
aI0
aI0
aI0
aI0
aI0
aI0
aI0
aI0
aI0
aI0
aI0
aI0
aI0
aI0
aI0
aI0
aI0
asg126
(lp320
F0.07692307692307691
aI0
aI0
aI0
aI0
aF0.07692307692307691
aI0
aI0
aI0
aI0
aF0.07692307692307691
aI0
aI0
aI0
aI0
aF0.07692307692307691
aI0
aI0
aI0
aI0
aF0.07692307692307691
aI0
aI0
aI0
aI0
asg128
(lp321
I0
aI0
aI0
aI0
aI0
aI0
aI0
aI0
aI0
aI0
aI0
aI0
aI0
aI0
aI0
aI0
aI0
aI0
aI0
aI0
asg130
(lp322
I0
aF0.09523809523809525
aF0.18181818181818185
aF0.09999999999999999
aF0.3076923076923077
aI0
aF0.09523809523809525
aF0.18181818181818185
aF0.09999999999999999
aF0.3076923076923077
aI0
aF0.09523809523809525
aF0.18181818181818185
aF0.09999999999999999
aF0.3076923076923077
aI0
aF0.09523809523809525
aF0.18181818181818185
aF0.09999999999999999
aF0.3076923076923077
aI0
aF0.09523809523809525
aF0.18181818181818185
aF0.09999999999999999
aF0.3076923076923077
asg132
(lp323
F0.15
aI0
aF0.058823529411764705
aF0.08333333333333333
aI0
aF0.15
aI0
aF0.058823529411764705
aF0.08333333333333333
aI0
aF0.15
aI0
aF0.058823529411764705
aF0.08333333333333333
aI0
aF0.15
aI0
aF0.058823529411764705
aF0.08333333333333333
aI0
aF0.15
aI0
aF0.058823529411764705
aF0.08333333333333333
aI0
asg134
(lp324
F0.41379310344827586
aF0.16666666666666666
aF0.2448979591836735
aF0.4615384615384615
aF0.19999999999999998
aF0.41379310344827586
aF0.16666666666666666
aF0.2448979591836735
aF0.4615384615384615
aF0.19999999999999998
aF0.41379310344827586
aF0.16666666666666666
aF0.2448979591836735
aF0.4615384615384615
aF0.19999999999999998
aF0.41379310344827586
aF0.16666666666666666
aF0.2448979591836735
aF0.4615384615384615
aF0.19999999999999998
aF0.41379310344827586
aF0.16666666666666666
aF0.2448979591836735
aF0.4615384615384615
aF0.19999999999999998
asg136
(lp325
F0.4444444444444445
aF0.380952380952381
aF0.6428571428571429
aF0.7222222222222223
aF0.608695652173913
aF0.4444444444444445
aF0.380952380952381
aF0.6428571428571429
aF0.7222222222222223
aF0.608695652173913
aF0.4444444444444445
aF0.380952380952381
aF0.6428571428571429
aF0.7222222222222223
aF0.608695652173913
aF0.4444444444444445
aF0.380952380952381
aF0.6428571428571429
aF0.7222222222222223
aF0.608695652173913
aF0.4444444444444445
aF0.380952380952381
aF0.6428571428571429
aF0.7222222222222223
aF0.608695652173913
asg138
(lp326
I0
aF0.09523809523809525
aF0.1
aI0
aI0
aI0
aF0.09523809523809525
aF0.1
aI0
aI0
aI0
aF0.09523809523809525
aF0.1
aI0
aI0
aI0
aF0.09523809523809525
aF0.1
aI0
aI0
aI0
aF0.09523809523809525
aF0.1
aI0
aI0
asg140
(lp327
g8
(g12
S'\xae|\x1f.\xb8\x8d\xbb?'
p328
tp329
Rp330
ag8
(g12
S'\x07gH\xb9M\xce\xba?'
p331
tp332
Rp333
ag8
(g12
S'\xde\x8a2T\xc3\x80\xc4?'
p334
tp335
Rp336
ag8
(g12
S'\xce\xb0iQ\x9d\xcf\xc1?'
p337
tp338
Rp339
ag8
(g12
S'r\x94\xc6\xc5\xf9.\xbc?'
p340
tp341
Rp342
ag8
(g12
S'\xae|\x1f.\xb8\x8d\xbb?'
p343
tp344
Rp345
ag8
(g12
S'\x07gH\xb9M\xce\xba?'
p346
tp347
Rp348
ag8
(g12
S'\xde\x8a2T\xc3\x80\xc4?'
p349
tp350
Rp351
ag8
(g12
S'\xce\xb0iQ\x9d\xcf\xc1?'
p352
tp353
Rp354
ag8
(g12
S'r\x94\xc6\xc5\xf9.\xbc?'
p355
tp356
Rp357
ag8
(g12
S'\xae|\x1f.\xb8\x8d\xbb?'
p358
tp359
Rp360
ag8
(g12
S'\x07gH\xb9M\xce\xba?'
p361
tp362
Rp363
ag8
(g12
S'\xde\x8a2T\xc3\x80\xc4?'
p364
tp365
Rp366
ag8
(g12
S'\xce\xb0iQ\x9d\xcf\xc1?'
p367
tp368
Rp369
ag8
(g12
S'r\x94\xc6\xc5\xf9.\xbc?'
p370
tp371
Rp372
ag8
(g12
S'\xae|\x1f.\xb8\x8d\xbb?'
p373
tp374
Rp375
ag8
(g12
S'\x07gH\xb9M\xce\xba?'
p376
tp377
Rp378
ag8
(g12
S'\xde\x8a2T\xc3\x80\xc4?'
p379
tp380
Rp381
ag8
(g12
S'\xce\xb0iQ\x9d\xcf\xc1?'
p382
tp383
Rp384
ag8
(g12
S'r\x94\xc6\xc5\xf9.\xbc?'
p385
tp386
Rp387
ag8
(g12
S'\xae|\x1f.\xb8\x8d\xbb?'
p388
tp389
Rp390
ag8
(g12
S'\x07gH\xb9M\xce\xba?'
p391
tp392
Rp393
ag8
(g12
S'\xde\x8a2T\xc3\x80\xc4?'
p394
tp395
Rp396
ag8
(g12
S'\xce\xb0iQ\x9d\xcf\xc1?'
p397
tp398
Rp399
ag8
(g12
S'r\x94\xc6\xc5\xf9.\xbc?'
p400
tp401
Rp402
asg217
(lp403
F0.24
aF0.5106382978723404
aF0.7035398230088495
aF0.7301587301587302
aF0.7138888888888888
aF0.24
aF0.5106382978723404
aF0.7035398230088495
aF0.7301587301587302
aF0.7138888888888888
aF0.24
aF0.5106382978723404
aF0.7035398230088495
aF0.7301587301587302
aF0.7138888888888888
aF0.24
aF0.5106382978723404
aF0.7035398230088495
aF0.7301587301587302
aF0.7138888888888888
aF0.24
aF0.5106382978723404
aF0.7035398230088495
aF0.7301587301587302
aF0.7138888888888888
asg219
(lp404
I0
aI0
aI0
aI0
aI0
aI0
aI0
aI0
aI0
aI0
aI0
aI0
aI0
aI0
aI0
aI0
aI0
aI0
aI0
aI0
aI0
aI0
aI0
aI0
aI0
asg221
(lp405
I0
aI0
aI0
aI0
aI0
aI0
aI0
aI0
aI0
aI0
aI0
aI0
aI0
aI0
aI0
aI0
aI0
aI0
aI0
aI0
aI0
aI0
aI0
aI0
aI0
assS'naive_bayes'
p406
(dp407
g4
(lp408
I0
aI0
aI0
aI0
aI0
aI0
aI0
aI0
aI0
aI0
aI0
aI0
aI0
aI0
aI0
aI0
aI0
aI0
aI0
aI0
aI0
aI0
aI0
aI0
aI0
asg6
(lp409
g8
(g12
S'\xaap\xf3\x17\xffC\xda?'
p410
tp411
Rp412
ag8
(g12
S'\xc2\x80w\xdfG\xc7\xd9?'
p413
tp414
Rp415
ag8
(g12
S'^\xd7\xf5\xc7\x18t\xd8?'
p416
tp417
Rp418
ag8
(g12
S'\xc2\xd2\xe7~s$\xe0?'
p419
tp420
Rp421
ag8
(g12
S'\x8e\xcb\x92\x87\xcd\xba\xe1?'
p422
tp423
Rp424
ag8
(g12
S'\xaap\xf3\x17\xffC\xda?'
p425
tp426
Rp427
ag8
(g12
S'\xc2\x80w\xdfG\xc7\xd9?'
p428
tp429
Rp430
ag8
(g12
S'^\xd7\xf5\xc7\x18t\xd8?'
p431
tp432
Rp433
ag8
(g12
S'\xc2\xd2\xe7~s$\xe0?'
p434
tp435
Rp436
ag8
(g12
S'\x8e\xcb\x92\x87\xcd\xba\xe1?'
p437
tp438
Rp439
ag8
(g12
S'\xaap\xf3\x17\xffC\xda?'
p440
tp441
Rp442
ag8
(g12
S'\xc2\x80w\xdfG\xc7\xd9?'
p443
tp444
Rp445
ag8
(g12
S'^\xd7\xf5\xc7\x18t\xd8?'
p446
tp447
Rp448
ag8
(g12
S'\xc2\xd2\xe7~s$\xe0?'
p449
tp450
Rp451
ag8
(g12
S'\x8e\xcb\x92\x87\xcd\xba\xe1?'
p452
tp453
Rp454
ag8
(g12
S'\xaap\xf3\x17\xffC\xda?'
p455
tp456
Rp457
ag8
(g12
S'\xc2\x80w\xdfG\xc7\xd9?'
p458
tp459
Rp460
ag8
(g12
S'^\xd7\xf5\xc7\x18t\xd8?'
p461
tp462
Rp463
ag8
(g12
S'\xc2\xd2\xe7~s$\xe0?'
p464
tp465
Rp466
ag8
(g12
S'\x8e\xcb\x92\x87\xcd\xba\xe1?'
p467
tp468
Rp469
ag8
(g12
S'\xaap\xf3\x17\xffC\xda?'
p470
tp471
Rp472
ag8
(g12
S'\xc2\x80w\xdfG\xc7\xd9?'
p473
tp474
Rp475
ag8
(g12
S'^\xd7\xf5\xc7\x18t\xd8?'
p476
tp477
Rp478
ag8
(g12
S'\xc2\xd2\xe7~s$\xe0?'
p479
tp480
Rp481
ag8
(g12
S'\x8e\xcb\x92\x87\xcd\xba\xe1?'
p482
tp483
Rp484
asg90
(lp485
F0.6564102564102563
aF0.5792972459639126
aF0.5437302423603794
aF0.5854748603351956
aF0.5963302752293578
aF0.6564102564102563
aF0.5792972459639126
aF0.5437302423603794
aF0.5854748603351956
aF0.5963302752293578
aF0.6564102564102563
aF0.5792972459639126
aF0.5437302423603794
aF0.5854748603351956
aF0.5963302752293578
aF0.6564102564102563
aF0.5792972459639126
aF0.5437302423603794
aF0.5854748603351956
aF0.5963302752293578
aF0.6564102564102563
aF0.5792972459639126
aF0.5437302423603794
aF0.5854748603351956
aF0.5963302752293578
asg92
(lp486
I0
aI0
aI0
aI0
aI0
aI0
aI0
aI0
aI0
aI0
aI0
aI0
aI0
aI0
aI0
aI0
aI0
aI0
aI0
aI0
aI0
aI0
aI0
aI0
aI0
asg94
(lp487
I0
aI0
aI0
aI0
aI0
aI0
aI0
aI0
aI0
aI0
aI0
aI0
aI0
aI0
aI0
aI0
aI0
aI0
aI0
aI0
aI0
aI0
aI0
aI0
aI0
asg96
(lp488
I0
aI0
aI0
aI0
aI0
aI0
aI0
aI0
aI0
aI0
aI0
aI0
aI0
aI0
aI0
aI0
aI0
aI0
aI0
aI0
aI0
aI0
aI0
aI0
aI0
asg98
(lp489
I0
aI0
aI0
aI0
aI0
aI0
aI0
aI0
aI0
aI0
aI0
aI0
aI0
aI0
aI0
aI0
aI0
aI0
aI0
aI0
aI0
aI0
aI0
aI0
aI0
asg100
(lp490
I0
aI0
aI0
aI0
aI0
aI0
aI0
aI0
aI0
aI0
aI0
aI0
aI0
aI0
aI0
aI0
aI0
aI0
aI0
aI0
aI0
aI0
aI0
aI0
aI0
asg102
(lp491
I0
aI0
aI0
aI0
aI0
aI0
aI0
aI0
aI0
aI0
aI0
aI0
aI0
aI0
aI0
aI0
aI0
aI0
aI0
aI0
aI0
aI0
aI0
aI0
aI0
asg104
(lp492
I0
aI0
aI0
aI0
aI0
aI0
aI0
aI0
aI0
aI0
aI0
aI0
aI0
aI0
aI0
aI0
aI0
aI0
aI0
aI0
aI0
aI0
aI0
aI0
aI0
asg106
(lp493
I0
aI0
aI0
aI0
aI0
aI0
aI0
aI0
aI0
aI0
aI0
aI0
aI0
aI0
aI0
aI0
aI0
aI0
aI0
aI0
aI0
aI0
aI0
aI0
aI0
asg108
(lp494
I0
aI0
aI0
aI0
aI0
aI0
aI0
aI0
aI0
aI0
aI0
aI0
aI0
aI0
aI0
aI0
aI0
aI0
aI0
aI0
aI0
aI0
aI0
aI0
aI0
asg110
(lp495
I0
aI0
aI0
aI0
aI0
aI0
aI0
aI0
aI0
aI0
aI0
aI0
aI0
aI0
aI0
aI0
aI0
aI0
aI0
aI0
aI0
aI0
aI0
aI0
aI0
asg112
(lp496
I0
aI0
aI0
aI0
aI0
aI0
aI0
aI0
aI0
aI0
aI0
aI0
aI0
aI0
aI0
aI0
aI0
aI0
aI0
aI0
aI0
aI0
aI0
aI0
aI0
asg114
(lp497
F0.6260162601626017
aF0.7058823529411764
aF0.47058823529411764
aF0.574074074074074
aF0.5984251968503936
aF0.6260162601626017
aF0.7058823529411764
aF0.47058823529411764
aF0.574074074074074
aF0.5984251968503936
aF0.6260162601626017
aF0.7058823529411764
aF0.47058823529411764
aF0.574074074074074
aF0.5984251968503936
aF0.6260162601626017
aF0.7058823529411764
aF0.47058823529411764
aF0.574074074074074
aF0.5984251968503936
aF0.6260162601626017
aF0.7058823529411764
aF0.47058823529411764
aF0.574074074074074
aF0.5984251968503936
asg116
(lp498
I0
aI0
aI0
aI0
aI0
aI0
aI0
aI0
aI0
aI0
aI0
aI0
aI0
aI0
aI0
aI0
aI0
aI0
aI0
aI0
aI0
aI0
aI0
aI0
aI0
asg118
(lp499
I0
aI0
aI0
aI0
aI0
aI0
aI0
aI0
aI0
aI0
aI0
aI0
aI0
aI0
aI0
aI0
aI0
aI0
aI0
aI0
aI0
aI0
aI0
aI0
aI0
asg120
(lp500
I0
aI0
aI0
aI0
aI0
aI0
aI0
aI0
aI0
aI0
aI0
aI0
aI0
aI0
aI0
aI0
aI0
aI0
aI0
aI0
aI0
aI0
aI0
aI0
aI0
asg122
(lp501
I0
aI0
aI0
aI0
aI0
aI0
aI0
aI0
aI0
aI0
aI0
aI0
aI0
aI0
aI0
aI0
aI0
aI0
aI0
aI0
aI0
aI0
aI0
aI0
aI0
asg124
(lp502
I0
aI0
aI0
aI0
aI0
aI0
aI0
aI0
aI0
aI0
aI0
aI0
aI0
aI0
aI0
aI0
aI0
aI0
aI0
aI0
aI0
aI0
aI0
aI0
aI0
asg126
(lp503
I0
aI0
aI0
aI0
aI0
aI0
aI0
aI0
aI0
aI0
aI0
aI0
aI0
aI0
aI0
aI0
aI0
aI0
aI0
aI0
aI0
aI0
aI0
aI0
aI0
asg128
(lp504
I0
aI0
aI0
aI0
aI0
aI0
aI0
aI0
aI0
aI0
aI0
aI0
aI0
aI0
aI0
aI0
aI0
aI0
aI0
aI0
asg130
(lp505
I0
aI0
aI0
aI0
aI0
aI0
aI0
aI0
aI0
aI0
aI0
aI0
aI0
aI0
aI0
aI0
aI0
aI0
aI0
aI0
aI0
aI0
aI0
aI0
aI0
asg132
(lp506
I0
aI0
aI0
aI0
aI0
aI0
aI0
aI0
aI0
aI0
aI0
aI0
aI0
aI0
aI0
aI0
aI0
aI0
aI0
aI0
aI0
aI0
aI0
aI0
aI0
asg134
(lp507
I0
aI0
aI0
aI0
aI0
aI0
aI0
aI0
aI0
aI0
aI0
aI0
aI0
aI0
aI0
aI0
aI0
aI0
aI0
aI0
aI0
aI0
aI0
aI0
aI0
asg136
(lp508
F0.33333333333333337
aF0.3076923076923077
aF0.5
aF0.36000000000000004
aF0.7777777777777777
aF0.33333333333333337
aF0.3076923076923077
aF0.5
aF0.36000000000000004
aF0.7777777777777777
aF0.33333333333333337
aF0.3076923076923077
aF0.5
aF0.36000000000000004
aF0.7777777777777777
aF0.33333333333333337
aF0.3076923076923077
aF0.5
aF0.36000000000000004
aF0.7777777777777777
aF0.33333333333333337
aF0.3076923076923077
aF0.5
aF0.36000000000000004
aF0.7777777777777777
asg138
(lp509
I0
aI0
aI0
aI0
aI0
aI0
aI0
aI0
aI0
aI0
aI0
aI0
aI0
aI0
aI0
aI0
aI0
aI0
aI0
aI0
aI0
aI0
aI0
aI0
aI0
asg140
(lp510
g8
(g12
S's\xd3n\xdc\xbd\xbd\xb0?'
p511
tp512
Rp513
ag8
(g12
S'\x96\x91u\r\xe8\x8a\xb3?'
p514
tp515
Rp516
ag8
(g12
S'8\x96f\xb4i5\xb4?'
p517
tp518
Rp519
ag8
(g12
S'D\xe6`\xe2{\x8c\xb4?'
p520
tp521
Rp522
ag8
(g12
S'\x8b\xacN\xc8_m\xb9?'
p523
tp524
Rp525
ag8
(g12
S's\xd3n\xdc\xbd\xbd\xb0?'
p526
tp527
Rp528
ag8
(g12
S'\x96\x91u\r\xe8\x8a\xb3?'
p529
tp530
Rp531
ag8
(g12
S'8\x96f\xb4i5\xb4?'
p532
tp533
Rp534
ag8
(g12
S'D\xe6`\xe2{\x8c\xb4?'
p535
tp536
Rp537
ag8
(g12
S'\x8b\xacN\xc8_m\xb9?'
p538
tp539
Rp540
ag8
(g12
S's\xd3n\xdc\xbd\xbd\xb0?'
p541
tp542
Rp543
ag8
(g12
S'\x96\x91u\r\xe8\x8a\xb3?'
p544
tp545
Rp546
ag8
(g12
S'8\x96f\xb4i5\xb4?'
p547
tp548
Rp549
ag8
(g12
S'D\xe6`\xe2{\x8c\xb4?'
p550
tp551
Rp552
ag8
(g12
S'\x8b\xacN\xc8_m\xb9?'
p553
tp554
Rp555
ag8
(g12
S's\xd3n\xdc\xbd\xbd\xb0?'
p556
tp557
Rp558
ag8
(g12
S'\x96\x91u\r\xe8\x8a\xb3?'
p559
tp560
Rp561
ag8
(g12
S'8\x96f\xb4i5\xb4?'
p562
tp563
Rp564
ag8
(g12
S'D\xe6`\xe2{\x8c\xb4?'
p565
tp566
Rp567
ag8
(g12
S'\x8b\xacN\xc8_m\xb9?'
p568
tp569
Rp570
ag8
(g12
S's\xd3n\xdc\xbd\xbd\xb0?'
p571
tp572
Rp573
ag8
(g12
S'\x96\x91u\r\xe8\x8a\xb3?'
p574
tp575
Rp576
ag8
(g12
S'8\x96f\xb4i5\xb4?'
p577
tp578
Rp579
ag8
(g12
S'D\xe6`\xe2{\x8c\xb4?'
p580
tp581
Rp582
ag8
(g12
S'\x8b\xacN\xc8_m\xb9?'
p583
tp584
Rp585
asg217
(lp586
F0.2807017543859649
aF0.6209386281588448
aF0.7749419953596287
aF0.8082408874801901
aF0.8085714285714286
aF0.2807017543859649
aF0.6209386281588448
aF0.7749419953596287
aF0.8082408874801901
aF0.8085714285714286
aF0.2807017543859649
aF0.6209386281588448
aF0.7749419953596287
aF0.8082408874801901
aF0.8085714285714286
aF0.2807017543859649
aF0.6209386281588448
aF0.7749419953596287
aF0.8082408874801901
aF0.8085714285714286
aF0.2807017543859649
aF0.6209386281588448
aF0.7749419953596287
aF0.8082408874801901
aF0.8085714285714286
asg219
(lp587
I0
aI0
aI0
aI0
aI0
aI0
aI0
aI0
aI0
aI0
aI0
aI0
aI0
aI0
aI0
aI0
aI0
aI0
aI0
aI0
aI0
aI0
aI0
aI0
aI0
asg221
(lp588
I0
aI0
aI0
aI0
aI0
aI0
aI0
aI0
aI0
aI0
aI0
aI0
aI0
aI0
aI0
aI0
aI0
aI0
aI0
aI0
aI0
aI0
aI0
aI0
aI0
asss.