(dp0
I400
(dp1
S'NB_Naive'
p2
(dp3
S'toaru-majutsu-no-index'
p4
(lp5
I0
aI0
aI0
aI0
aI0
aI0
aI0
aI0
aI0
aI0
asS'fairy-tail'
p6
(lp7
F0.9841549295774648
aI0
aF0.9335664335664335
aF0.9821428571428571
aF0.984984984984985
aF0.9841549295774648
aI0
aF0.9335664335664335
aF0.9821428571428571
aF0.984984984984985
asS'others'
p8
(lp9
F0.603671706263499
aF0.5821845174973489
aF0.577922077922078
aF0.6422505307855626
aF0.6912539515279241
aF0.603671706263499
aF0.5821845174973489
aF0.577922077922078
aF0.6422505307855626
aF0.6912539515279241
asS'manga-production'
p10
(lp11
I0
aI0
aI0
aI0
aI0
aI0
aI0
aI0
aI0
aI0
asS'culture'
p12
(lp13
I0
aI0
aI0
aI0
aI0
aI0
aI0
aI0
aI0
aI0
asS'neon-genesis-evangelion'
p14
(lp15
I0
aI0
aI0
aI0
aI0
aI0
aI0
aI0
aI0
aI0
asS'pokemon'
p16
(lp17
I0
aI0
aI0
aI0
aI0
aI0
aI0
aI0
aI0
aI0
asS'japanese-language'
p18
(lp19
I0
aI0
aI0
aI0
aI0
aI0
aI0
aI0
aI0
aI0
asS'fullmetal-alchemist'
p20
(lp21
F0.9571917808219178
aI0
aI0
aI0
aF0.984984984984985
aF0.9571917808219178
aI0
aI0
aI0
aF0.984984984984985
asS'fate-stay-night'
p22
(lp23
I0
aI0
aI0
aI0
aI0
aI0
aI0
aI0
aI0
aI0
asS'tropes'
p24
(lp25
I0
aI0
aI0
aI0
aI0
aI0
aI0
aI0
aI0
aI0
asS'one-piece'
p26
(lp27
F0.9522998296422487
aF0.946551724137931
aF0.9005059021922428
aF0.9542586750788643
aF0.9590643274853801
aF0.9522998296422487
aF0.946551724137931
aF0.9005059021922428
aF0.9542586750788643
aF0.9590643274853801
asS'music'
p28
(lp29
I0
aI0
aI0
aI0
aI0
aI0
aI0
aI0
aI0
aI0
asS'sword-art-online'
p30
(lp31
I0
aI0
aI0
aI0
aI0
aI0
aI0
aI0
aI0
aI0
asS'naruto'
p32
(lp33
F0.9163934426229509
aF0.9368600682593856
aF0.9238754325259516
aF0.9587955625990491
aF0.973293768545994
aF0.9163934426229509
aF0.9368600682593856
aF0.9238754325259516
aF0.9587955625990491
aF0.973293768545994
asS'shingeki-no-kyojin'
p34
(lp35
I0
aI0
aI0
aI0
aI0
aI0
aI0
aI0
aI0
aI0
asS'resources'
p36
(lp37
I0
aI0
aI0
aI0
aI0
aI0
aI0
aI0
aI0
aI0
asS'monogatari-series'
p38
(lp39
I0
aI0
aI0
aI0
aI0
aI0
aI0
aI0
aI0
aI0
asS'anime-production'
p40
(lp41
I0
aI0
aI0
aI0
aI0
aI0
aI0
aI0
aI0
aI0
asS'anime-history'
p42
(lp43
I0
aI0
aI0
aI0
aI0
aI0
aI0
aI0
aI0
aI0
asS'bleach'
p44
(lp45
F0.9347826086956522
aF0.9648506151142355
aF0.9744525547445255
aF0.9950657894736842
aF0.9909365558912386
aF0.9347826086956522
aF0.9648506151142355
aF0.9744525547445255
aF0.9950657894736842
aF0.9909365558912386
asS'from-the-new-world'
p46
(lp47
I0
aI0
aI0
aI0
aI0
aI0
aI0
aI0
asS'madoka-magica'
p48
(lp49
I0
aI0
aI0
aI0
aF0.9939393939393939
aI0
aI0
aI0
aI0
aF0.9939393939393939
asS'dragon-ball'
p50
(lp51
I0
aI0
aI0
aI0
aI0
aI0
aI0
aI0
aI0
aI0
asS'mean_weighted'
p52
(lp53
cnumpy.core.multiarray
scalar
p54
(cnumpy
dtype
p55
(S'f8'
p56
I0
I1
tp57
Rp58
(I3
S'<'
p59
NNNI-1
I-1
I0
tp60
bS'S\x976\xcb\x1d\x1f\xe2?'
p61
tp62
Rp63
ag54
(g58
S'\xefZ,\xbe\xeee\xe1?'
p64
tp65
Rp66
ag54
(g58
S'nH\xd1[\xb6@\xe3?'
p67
tp68
Rp69
ag54
(g58
S'"0\x1e\x94N\x97\xe4?'
p70
tp71
Rp72
ag54
(g58
S'\x18y\\m\xf1u\xe6?'
p73
tp74
Rp75
ag54
(g58
S'S\x976\xcb\x1d\x1f\xe2?'
p76
tp77
Rp78
ag54
(g58
S'\xefZ,\xbe\xeee\xe1?'
p79
tp80
Rp81
ag54
(g58
S'nH\xd1[\xb6@\xe3?'
p82
tp83
Rp84
ag54
(g58
S'"0\x1e\x94N\x97\xe4?'
p85
tp86
Rp87
ag54
(g58
S'\x18y\\m\xf1u\xe6?'
p88
tp89
Rp90
asS'death-note'
p91
(lp92
F0.9876325088339223
aF0.9838709677419355
aF0.978021978021978
aF0.9409020217729394
aF0.9939393939393939
aF0.9876325088339223
aF0.9838709677419355
aF0.978021978021978
aF0.9409020217729394
aF0.9939393939393939
asS'code-geass'
p93
(lp94
I0
aI0
aF0.9798165137614679
aI0
aI0
aI0
aI0
aF0.9798165137614679
aI0
aI0
asS'hunter-x-hunter'
p95
(lp96
I0
aI0
aI0
aI0
aI0
aI0
aI0
aI0
aI0
aI0
asS'identification-request'
p97
(lp98
F0.8944
aF0.8897893030794165
aF0.8885191347753744
aF0.8857979502196194
aF0.8711819389110226
aF0.8944
aF0.8897893030794165
aF0.8885191347753744
aF0.8857979502196194
aF0.8711819389110226
asS'terminology'
p99
(lp100
I0
aI0
aI0
aI0
aI0
aI0
aI0
aI0
aI0
aI0
asS'mean'
p101
(lp102
g54
(g58
S'\x91\x85l#\xff\xe9\xcf?'
p103
tp104
Rp105
ag54
(g58
S'\xe2*\x14|Fi\xc7?'
p106
tp107
Rp108
ag54
(g58
S'\xfa\x9c\xc2\x0b\x8e\x96\xcf?'
p109
tp110
Rp111
ag54
(g58
S')(\xc1\xf9x\x11\xcc?'
p112
tp113
Rp114
ag54
(g58
S'\xd2V\xd1:\xb3L\xd3?'
p115
tp116
Rp117
ag54
(g58
S'\x91\x85l#\xff\xe9\xcf?'
p118
tp119
Rp120
ag54
(g58
S'\xe2*\x14|Fi\xc7?'
p121
tp122
Rp123
ag54
(g58
S'\xfa\x9c\xc2\x0b\x8e\x96\xcf?'
p124
tp125
Rp126
ag54
(g58
S')(\xc1\xf9x\x11\xcc?'
p127
tp128
Rp129
ag54
(g58
S'\xd2V\xd1:\xb3L\xd3?'
p130
tp131
Rp132
assS'NB_Smote'
p133
(dp134
g4
(lp135
I0
aI0
aI0
aI0
aI0
aI0
aI0
aI0
aI0
aI0
asg6
(lp136
F0.964622641509434
aF0.9736842105263158
aF0.9542743538767395
aF0.9776951672862454
aF0.9744990892531876
aF0.9649532710280374
aF0.9717391304347827
aF0.9503968253968254
aF0.9758364312267658
aF0.9705340699815838
asg8
(lp137
F0.5460614152202937
aF0.6244725738396625
aF0.6575342465753424
aF0.6813471502590673
aF0.6832694763729247
aF0.544137022397892
aF0.6234309623430963
aF0.6616022099447514
aF0.682704811443433
aF0.6826424870466321
asg10
(lp138
F0.955607476635514
aF0.9548387096774194
aF0.96579476861167
aF0.9813432835820896
aF0.9727272727272728
aF0.9604651162790697
aF0.951063829787234
aF0.9696356275303644
aI0
aF0.9705340699815838
asg12
(lp139
F0.9211711711711712
aF0.9347368421052632
aF0.9448818897637795
aI0
aI0
aF0.9177777777777778
aF0.9293139293139293
aF0.9447731755424064
aI0
aI0
asg14
(lp140
I0
aI0
aI0
aI0
aI0
aI0
aI0
aI0
aI0
aI0
asg16
(lp141
I0
aF0.9466950959488273
aI0
aI0
aI0
aI0
aF0.9530916844349681
aI0
aI0
aI0
asg18
(lp142
F0.9402298850574713
aF0.921161825726141
aF0.9448818897637795
aF0.9563636363636364
aF0.9587813620071685
aF0.9386363636363636
aF0.9293139293139293
aF0.9503968253968254
aF0.9597806215722121
aF0.9652014652014652
asg20
(lp143
F0.8910675381263616
aF0.925
aF0.9248554913294798
aF0.9511754068716094
aF0.9570661896243292
aF0.8920086393088553
aF0.9351464435146444
aF0.9247104247104247
aF0.9459459459459459
aF0.9444444444444444
asg22
(lp144
F0.9691943127962085
aF0.9736842105263158
aF0.9696969696969697
aF0.9868667917448405
aF0.9834558823529411
aF0.971764705882353
aF0.9738562091503268
aF0.9676767676767677
aF0.9849906191369606
aF0.9832089552238806
asg24
(lp145
F0.8592436974789915
aF0.888
aF0.9230769230769231
aF0.9528985507246377
aF0.9288194444444444
aF0.8568464730290456
aF0.8957915831663327
aF0.9176245210727969
aF0.9562841530054644
aF0.9229422066549913
asg26
(lp146
F0.8852813852813853
aF0.925
aF0.900562851782364
aF0.9326241134751773
aF0.9304347826086956
aF0.875
aF0.9216494845360824
aF0.8919925512104283
aF0.9259259259259259
aF0.9245614035087719
asg28
(lp147
I0
aI0
aF0.9696969696969697
aF0.9581056466302368
aF0.9553571428571429
aI0
aF0.9781181619256017
aF0.9716024340770791
aF0.9545454545454546
aF0.9616788321167883
asg30
(lp148
F0.9578454332552693
aF0.9487179487179487
aF0.9448818897637795
aF0.9722735674676525
aF0.9587813620071685
aF0.9649532710280374
aF0.9470338983050848
aF0.9466403162055336
aF0.9758364312267658
aF0.9616788321167883
asg32
(lp149
F0.9170403587443946
aF0.921161825726141
aF0.9248554913294798
aF0.9511754068716094
aF0.9709618874773139
aF0.9198218262806236
aF0.9197530864197531
aF0.9264990328820116
aF0.958029197080292
aF0.9669724770642202
asg34
(lp150
I0
aF0.9367088607594937
aF0.9542743538767395
aI0
aF0.9605026929982047
aI0
aF0.9410526315789474
aF0.958
aI0
aF0.9652014652014652
asg36
(lp151
I0
aI0
aF0.9619238476953907
aF0.9511754068716094
aF0.9762773722627737
aI0
aI0
aF0.958
aF0.9510869565217391
aF0.975925925925926
asg38
(lp152
I0
aF0.9426751592356688
aF0.9486166007905138
aF0.9740740740740741
aI0
aI0
aF0.9410526315789474
aF0.9485148514851485
aF0.9704251386321626
aI0
asg40
(lp153
F0.8131212723658051
aF0.8554913294797688
aF0.8823529411764706
aF0.9006849315068494
aF0.9304347826086956
aF0.8194444444444444
aF0.8546845124282982
aF0.8837638376383764
aF0.898972602739726
aF0.9213286713286714
asg42
(lp154
F0.9402298850574713
aF0.9347368421052632
aF0.96579476861167
aF0.9686924493554327
aI0
aF0.9450800915331807
aF0.9293139293139293
aF0.9618473895582329
aF0.9686346863468634
aF0.9850467289719627
asg44
(lp155
F0.9008810572687225
aF0.9446808510638298
aF0.9504950495049505
aF0.9563636363636364
aF0.981651376146789
aF0.9037199124726477
aF0.945031712473573
aF0.9485148514851485
aF0.9510869565217391
aF0.9850467289719627
asg46
(lp156
F0.9623529411764706
aI0
aI0
aI0
aF0.9627039627039627
aI0
aI0
aI0
asg48
(lp157
F0.9533799533799534
aF0.961038961038961
aF0.9696969696969697
aF0.9813432835820896
aF0.981651376146789
aF0.9560185185185185
aF0.9654427645788337
aF0.9657258064516129
aF0.9831460674157303
aF0.9777365491651205
asg50
(lp158
F0.927437641723356
aF0.9487179487179487
aF0.963855421686747
aF0.9686924493554327
aF0.9622302158273381
aF0.9322799097065463
aF0.951063829787234
aF0.9657258064516129
aF0.9686346863468634
aF0.9616788321167883
asg52
(lp159
g54
(g58
S'\xbe\xb9(\x81\xbds\xe6?'
p160
tp161
Rp162
ag54
(g58
S'\x03\xadssR\x18\xe9?'
p163
tp164
Rp165
ag54
(g58
S'\x8b\xbf\x9b\x10\x0f\xcb\xe9?'
p166
tp167
Rp168
ag54
(g58
S'i\x9d\xb1g`K\xe9?'
p169
tp170
Rp171
ag54
(g58
S'l\xb8\xe3\x87I\x7f\xe9?'
p172
tp173
Rp174
ag54
(g58
S'g\xfe|1bq\xe6?'
p175
tp176
Rp177
ag54
(g58
S'\xaaIK\n\xea)\xe9?'
p178
tp179
Rp180
ag54
(g58
S'\xf1\x9d;\xcb\x01\xbd\xe9?'
p181
tp182
Rp183
ag54
(g58
S'\xd8\xf8\xe3\x97\xdd\x9e\xe9?'
p184
tp185
Rp186
ag54
(g58
S'\xaeq\xf0\xf3i\x80\xe9?'
p187
tp188
Rp189
asg91
(lp190
F0.9855421686746988
aF0.9736842105263158
aF0.975609756097561
aF0.9850187265917603
aF0.988909426987061
aF0.9786729857819905
aF0.9781181619256017
aF0.9755600814663951
aF0.9849906191369606
aF0.9868913857677902
asg93
(lp191
F0.9714964370546318
aF0.961038961038961
aF0.967741935483871
aF0.9651376146788991
aF0.9727272727272728
aF0.971764705882353
aF0.9592274678111588
aF0.9676767676767677
aF0.9704251386321626
aF0.9723247232472325
asg95
(lp192
I0
aI0
aI0
aI0
aI0
aI0
aI0
aI0
aF0.9493670886075949
aI0
asg97
(lp193
F0.9380733944954128
aF0.8740157480314961
aF0.8955223880597015
aF0.8389154704944178
aF0.8320373250388803
aF0.9386363636363636
aF0.8747553816046967
aF0.8853974121996303
aF0.8359872611464968
aF0.8273155416012559
asg99
(lp194
F0.9578454332552693
aF0.958963282937365
aI0
aF0.9776951672862454
aI0
aF0.9627039627039627
aF0.9612903225806452
aI0
aF0.9794776119402985
aI0
asg101
(lp195
g54
(g58
S'\x1a\x16`&\xba#\xe5?'
p196
tp197
Rp198
ag54
(g58
S'\x8d\xa7\x05\xbd\xccl\xe7?'
p199
tp200
Rp201
ag54
(g58
S'\xcbQ\xd0\xf4S\xae\xe7?'
p202
tp203
Rp204
ag54
(g58
S'u\xdc#G\x12\xeb\xe6?'
p205
tp206
Rp207
ag54
(g58
S'r\xf69\xca\x10\x8e\xe5?'
p208
tp209
Rp210
ag54
(g58
S'\x86j\xa0&H)\xe5?'
p211
tp212
Rp213
ag54
(g58
S'\x96<\x93\xc1\xaf\x87\xe8?'
p214
tp215
Rp216
ag54
(g58
S'}[A\xde\x12\xa9\xe7?'
p217
tp218
Rp219
ag54
(g58
S'A\xd7\xaa\x01w\xe0\xe6?'
p220
tp221
Rp222
ag54
(g58
S'\xe6\xf1\x1c\xee\xaf\xa4\xe6?'
p223
tp224
Rp225
assS'NB_TunedLearner'
p226
(dp227
g4
(lp228
I0
aI0
aI0
aI0
aI0
aI0
aI0
aF0.9738955823293173
aI0
aI0
asg6
(lp229
F0.970917225950783
aF0.9653579676674365
aF0.9696969696969697
aF0.9775280898876404
aF0.9775280898876404
aF0.9713701431492843
aF0.9773123909249564
aF0.9509803921568627
aF0.9795539033457249
aF0.9744525547445255
asg8
(lp230
F0.5614489003880984
aF0.5945945945945946
aF0.72544080604534
aF0.6779220779220779
aF0.6692307692307692
aF0.6043256997455471
aF0.6905055487053021
aF0.6736111111111112
aF0.6808785529715762
aF0.6802547770700637
asg10
(lp231
F0.9559471365638766
aF0.9288888888888889
aF0.9863013698630136
aF0.9793621013133208
aF0.9775280898876404
aF0.9654471544715447
aF0.9824561403508771
aF0.9661354581673307
aF0.9813780260707635
aF0.9744525547445255
asg12
(lp232
F0.9393939393939394
aF0.9288888888888889
aF0.9795918367346939
aI0
aI0
aF0.9576612903225806
aF0.9773123909249564
aF0.9528487229862476
aI0
aI0
asg14
(lp233
I0
aI0
aI0
aI0
aI0
aI0
aI0
aI0
aI0
aI0
asg16
(lp234
I0
aF0.9288888888888889
aI0
aI0
aI0
aI0
aF0.975609756097561
aI0
aI0
aI0
asg18
(lp235
F0.9559471365638766
aF0.9146608315098468
aF0.9680672268907563
aF0.9525547445255474
aF0.9595588235294118
aF0.9654471544715447
aF0.9621993127147767
aF0.943579766536965
aF0.9529837251356239
aF0.9638989169675091
asg20
(lp236
F0.9004149377593361
aF0.9414414414414415
aF0.9520661157024793
aF0.9490909090909091
aF0.9595588235294118
aF0.9241245136186771
aF0.9572649572649573
aF0.9326923076923077
aF0.9461400359066428
aF0.9587073608617595
asg22
(lp237
F0.9752808988764045
aF0.9720930232558139
aF0.9913941480206541
aF0.981203007518797
aF0.9793621013133208
aF0.981404958677686
aF0.9876543209876543
aF0.9758551307847082
aF0.9813780260707635
aF0.985239852398524
asg24
(lp238
F0.8697394789579158
aF0.8912579957356077
aF0.9365853658536586
aF0.9560439560439561
aF0.93048128342246
aF0.8895131086142322
aF0.9210526315789473
aF0.9238095238095239
aF0.956442831215971
aF0.9303135888501742
asg26
(lp239
F0.8767676767676768
aF0.9227373068432672
aF0.9230769230769231
aF0.9371633752244165
aF0.9271758436944938
aF0.878003696857671
aF0.9427609427609428
aF0.9150943396226415
aF0.9377224199288257
aF0.9319371727748691
asg28
(lp240
F0.9601769911504425
aF0.9766355140186916
aF0.9896907216494846
aF0.9473684210526315
aF0.9542961608775137
aF0.9753593429158111
aF0.9876543209876543
aF0.9661354581673307
aF0.9512635379061372
aF0.956989247311828
asg30
(lp241
F0.9623059866962306
aF0.9457013574660633
aF0.9779286926994907
aF0.9793621013133208
aF0.9684601113172542
aF0.9693877551020408
aF0.9705372616984402
aF0.949119373776908
aF0.9813780260707635
aF0.969147005444646
asg32
(lp242
F0.9175475687103594
aF0.9126637554585153
aF0.93354943273906
aF0.9525547445255474
aF0.9757009345794393
aF0.9223300970873787
aF0.9380234505862647
aF0.9220532319391636
aF0.9581818181818181
aF0.9744525547445255
asg34
(lp243
I0
aF0.9247787610619469
aF0.9829351535836177
aI0
aF0.9542961608775137
aI0
aF0.9773123909249564
aF0.9454191033138402
aI0
aF0.960431654676259
asg36
(lp244
I0
aF0.9330357142857143
aI0
aF0.9456521739130435
aF0.9648798521256932
aI0
aI0
aF0.947265625
aF0.947841726618705
aF0.969147005444646
asg38
(lp245
I0
aF0.9288888888888889
aF0.9664429530201343
aF0.9720670391061452
aI0
aI0
aF0.9671848013816926
aF0.947265625
aF0.9723247232472325
aI0
asg40
(lp246
F0.7862318840579711
aF0.865424430641822
aF0.8930232558139535
aF0.9141856392294221
aF0.9321428571428572
aF0.810580204778157
aF0.8722741433021807
aF0.9116541353383458
aF0.9133448873483535
aF0.9319371727748691
asg42
(lp247
F0.9730941704035875
aF0.9309576837416481
aI0
aF0.9720670391061452
aF0.9793621013133208
aI0
aI0
aF0.9603960396039604
aF0.9723247232472325
aF0.985239852398524
asg44
(lp248
F0.9194915254237288
aF0.954337899543379
aF0.96
aF0.9560439560439561
aF0.9849056603773585
aF0.9368836291913215
aF0.9688581314878892
aF0.958498023715415
aF0.956442831215971
aF0.985239852398524
asg46
(lp249
F0.9774774774774775
aF0.9565217391304348
aF0.9879931389365352
aI0
aF0.979381443298969
aI0
aF0.958498023715415
aI0
asg48
(lp250
F0.9623059866962306
aF0.960919540229885
aF0.9829351535836177
aF0.9849056603773585
aF0.981203007518797
aF0.9713701431492843
aF0.984182776801406
aF0.9642147117296223
aF0.9850467289719627
aF0.9834254143646409
asg50
(lp251
F0.9434782608695652
aF0.9330357142857143
aF0.9696969696969697
aF0.9666666666666667
aF0.9595588235294118
aF0.9519038076152304
aF0.9688581314878892
aF0.9603960396039604
aF0.96875
aF0.9621621621621622
asg52
(lp252
g54
(g58
S'T\x02\xca \xe4\xd5\xe6?'
p253
tp254
Rp255
ag54
(g58
S'\x18e8V\x91^\xe9?'
p256
tp257
Rp258
ag54
(g58
S'\xaf\nP\xce\x1er\xea?'
p259
tp260
Rp261
ag54
(g58
S'\xf0\xa5-!B\xcd\xe9?'
p262
tp263
Rp264
ag54
(g58
S'\xa7s\xd1\xb5!a\xe9?'
p265
tp266
Rp267
ag54
(g58
S'\x96\xc3\xe8F\xbbh\xe7?'
p268
tp269
Rp270
ag54
(g58
S'\xfc\xdc\xb88\xcc\xd1\xe9?'
p271
tp272
Rp273
ag54
(g58
S'\x19W\x12\x97\xd6s\xea?'
p274
tp275
Rp276
ag54
(g58
S'\xc0p\xce\xc9\xc1\xd7\xe9?'
p277
tp278
Rp279
ag54
(g58
S't\x0f\x103L\x88\xe9?'
p280
tp281
Rp282
asg91
(lp283
F0.9665924276169265
aF0.9789227166276346
aF0.9616026711185309
aF0.9849056603773585
aF0.9905123339658444
aF0.9595959595959596
aF0.9655172413793104
aF0.9797979797979798
aF0.9850467289719627
aF0.9907235621521335
asg93
(lp284
F0.9886104783599089
aF0.960919540229885
aF0.9812606473594548
aF0.9757009345794393
aF0.9720670391061452
aF0.9875259875259875
aF0.9824561403508771
aF0.9680638722554891
aF0.975925925925926
aF0.9726775956284153
asg95
(lp285
I0
aF0.9435665914221218
aI0
aF0.9439421338155516
aI0
aI0
aI0
aI0
aF0.9427549194991055
aI0
asg97
(lp286
F0.9293361884368309
aF0.8781512605042017
aF0.9
aF0.8405797101449275
aF0.8246445497630331
aF0.9099616858237548
aF0.9003215434083601
aF0.9014869888475836
aF0.8405103668261563
aF0.827906976744186
asg99
(lp287
F0.9752808988764045
aF0.9521640091116174
aF0.9879931389365352
aF0.9793621013133208
aI0
aF0.9834368530020704
aI0
aI0
aF0.9777365491651205
aI0
asg101
(lp288
g54
(g58
S'\xc4\xd6&\xe9L]\xe6?'
p289
tp290
Rp291
ag54
(g58
S'o\xad\x80p\x01\x81\xeb?'
p292
tp293
Rp294
ag54
(g58
S'\xfc\xfdODm,\xe8?'
p295
tp296
Rp297
ag54
(g58
S'u\x85\x818I\xf9\xe7?'
p298
tp299
Rp300
ag54
(g58
S'\x92\xcd\x92\xc7{\xa7\xe6?'
p301
tp302
Rp303
ag54
(g58
S'\x8a\xe67i\x01\x83\xe5?'
p304
tp305
Rp306
ag54
(g58
S'\x0b\x9c\xd9\x81\xd4\x03\xe7?'
p307
tp308
Rp309
ag54
(g58
S'\n\xc2\xd4L\xdf\xdf\xe9?'
p310
tp311
Rp312
ag54
(g58
S'+\x94K\xce\xaf\xfe\xe7?'
p313
tp314
Rp315
ag54
(g58
S'\xe3~\x06T\x06\xb5\xe6?'
p316
tp317
Rp318
assS'NB_TunedSmote'
p319
(dp320
g4
(lp321
I0
aI0
aI0
aI0
aI0
aI0
aI0
aF0.9640718562874252
aI0
aI0
asg6
(lp322
F0.9640449438202248
aF0.958963282937365
aF0.9445544554455445
aF0.9760147601476015
aF0.9746835443037974
aF0.9590909090909091
aF0.9452631578947368
aF0.9507874015748031
aF0.9668615984405458
aF0.9763636363636363
asg8
(lp323
F0.5637319316688568
aF0.6115702479338843
aF0.6411290322580645
aF0.6808236808236808
aF0.686624203821656
aF0.5538057742782152
aF0.6227461858529819
aF0.6643741403026134
aF0.6595744680851063
aF0.6849489795918368
asg10
(lp324
F0.9683972911963883
aF0.9801324503311258
aF0.9714867617107943
aI0
aF0.9711711711711711
aF0.965675057208238
aF0.961456102783726
aF0.9777327935222672
aF0.9668615984405458
aF0.9693140794223827
asg12
(lp325
F0.9366812227074236
aF0.9367088607594937
aF0.9445544554455445
aI0
aI0
aF0.9274725274725275
aF0.9334719334719335
aF0.9545454545454546
aI0
aI0
asg14
(lp326
I0
aI0
aI0
aI0
aI0
aI0
aI0
aI0
aI0
aI0
asg16
(lp327
F0.9449339207048458
aF0.9487179487179487
aI0
aI0
aI0
aF0.9315673289183223
aI0
aI0
aI0
aI0
asg18
(lp328
F0.9449339207048458
aF0.9173553719008265
aF0.9408284023668639
aF0.9548736462093863
aF0.9590747330960854
aF0.9440715883668904
aF0.9276859504132231
aF0.9452054794520548
aF0.9411764705882353
aF0.9555160142348754
asg20
(lp329
F0.9127659574468086
aF0.925
aF0.931640625
aF0.9446428571428571
aF0.9423076923076923
aF0.9154013015184381
aF0.9334719334719335
aF0.9252873563218391
aF0.9483747609942639
aF0.9521276595744681
asg22
(lp330
F0.9640449438202248
aF0.9758241758241758
aF0.9774590163934426
aF0.9851024208566108
aF0.98
aF0.9723502304147466
aF0.980349344978166
aF0.9777327935222672
aF0.9841269841269841
aF0.9835164835164835
asg24
(lp331
F0.8809034907597536
aF0.8792079207920792
aF0.9208494208494209
aF0.9514388489208633
aF0.9472759226713533
aF0.871900826446281
aF0.898
aF0.927063339731286
aF0.9340866290018832
aF0.9242685025817556
asg26
(lp332
F0.8918918918918919
aF0.9117043121149897
aF0.9
aF0.9313380281690141
aF0.9309153713298791
aF0.8846960167714885
aF0.9219712525667351
aF0.902803738317757
aF0.9117647058823529
aF0.9226804123711341
asg28
(lp333
F0.9794520547945206
aI0
aF0.9774590163934426
aF0.9548736462093863
aF0.9676840215439856
aF0.9745958429561201
aI0
aF0.9737903225806451
aF0.9520153550863724
aF0.9710669077757685
asg30
(lp334
F0.955456570155902
aF0.9507494646680942
aF0.9578313253012049
aF0.9688644688644689
aF0.964221824686941
aF0.9678899082568807
aF0.9472573839662447
aF0.9470588235294117
aF0.9802371541501976
aF0.9693140794223827
asg32
(lp335
F0.9245689655172413
aF0.9154639175257732
aF0.9208494208494209
aF0.9548736462093863
aF0.9659498207885304
aF0.9274725274725275
aF0.9200819672131147
aF0.9165085388994307
aF0.9447619047619048
aF0.9763636363636363
asg34
(lp336
I0
aF0.9347368421052632
aF0.9520958083832335
aF0.9548736462093863
aF0.9676840215439856
aI0
aF0.9472573839662447
aI0
aI0
aF0.9640933572710951
asg36
(lp337
I0
aI0
aF0.9675456389452333
aF0.9600725952813067
aI0
aI0
aI0
aF0.9583333333333334
aF0.9376181474480151
aF0.9675675675675676
asg38
(lp338
I0
aF0.9367088607594937
aF0.9559118236472945
aF0.977818853974122
aI0
aI0
aF0.9412997903563941
aF0.9545454545454546
aF0.9706457925636007
aI0
asg40
(lp339
F0.7988826815642458
aF0.8638132295719845
aF0.8866171003717472
aF0.9058219178082192
aF0.9197952218430034
aF0.8146718146718147
aF0.8376865671641791
aF0.8765880217785844
aF0.8969258589511754
aF0.9210977701543739
asg42
(lp340
F0.9449339207048458
aF0.940677966101695
aF0.959758551307847
aF0.9814471243042672
aF0.98
aF0.9440715883668904
aF0.9492600422832981
aI0
aF0.9668615984405458
aF0.9763636363636363
asg44
(lp341
F0.9127659574468086
aF0.9426751592356688
aF0.9334637964774951
aF0.9706422018348624
aF0.9835766423357665
aF0.8959660297239915
aF0.9452631578947368
aF0.9470588235294117
aF0.9520153550863724
aF0.9817184643510055
asg46
(lp342
F0.9705882352941176
aF0.9866666666666667
aI0
aI0
aF0.9678899082568807
aI0
aI0
aI0
asg48
(lp343
F0.9640449438202248
aF0.9673202614379085
aF0.9655870445344129
aF0.9851024208566108
aF0.9782214156079855
aF0.9569160997732427
aF0.9718614718614719
aF0.966
aF0.9860834990059643
aF0.9710669077757685
asg50
(lp344
F0.9265658747300216
aF0.9507494646680942
aF0.959758551307847
aF0.9688644688644689
aF0.9556737588652482
aF0.9295154185022027
aF0.9553191489361702
aF0.9621513944223108
aF0.9575289575289575
aF0.9640933572710951
asg52
(lp345
g54
(g58
S'D=\xc1U\x80\x84\xe7?'
p346
tp347
Rp348
ag54
(g58
S'\x92\xee\xf4\xb5\xee]\xe9?'
p349
tp350
Rp351
ag54
(g58
S'\xe8\xc9HD\xf1\x82\xe9?'
p352
tp353
Rp354
ag54
(g58
S'\xf5\x92u\xcb\x13\xdc\xe9?'
p355
tp356
Rp357
ag54
(g58
S'\x06y\x07\x016\xb5\xe9?'
p358
tp359
Rp360
ag54
(g58
S'&\x98\xa0\xca\xce]\xe7?'
p361
tp362
Rp363
ag54
(g58
S'\xd4>\xd7*`\x82\xe8?'
p364
tp365
Rp366
ag54
(g58
S'Q\xf0\x02\xac\xbd\x81\xe9?'
p367
tp368
Rp369
ag54
(g58
S'\x89\xeeaR\x8a5\xe9?'
p370
tp371
Rp372
ag54
(g58
S'\x16\xc8\xb5\xed+\xbb\xe9?'
p373
tp374
Rp375
asg91
(lp376
F0.9839449541284404
aF0.9758241758241758
aF0.9774590163934426
aF0.9851024208566108
aF0.9835766423357665
aF0.9768518518518519
aF0.9846491228070176
aF0.9679358717434869
aF0.9783037475345168
aF0.9781420765027322
asg93
(lp377
F0.9705882352941176
aF0.9487179487179487
aF0.94831013916501
aF0.9742173112338858
aF0.9676840215439856
aF0.965675057208238
aF0.9573560767590619
aF0.9837067209775967
aF0.9744597249508841
aF0.9745916515426497
asg95
(lp378
I0
aF0.9652173913043478
aI0
aF0.9346289752650176
aI0
aI0
aI0
aI0
aF0.9575289575289575
aI0
asg97
(lp379
F0.9206008583690987
aF0.8671875
aF0.8800738007380073
aF0.8304552590266876
aF0.8421875
aF0.9274725274725275
aF0.8735408560311284
aF0.8846153846153846
aF0.8104575163398693
aF0.841692789968652
asg99
(lp380
F0.9683972911963883
aF0.961038961038961
aI0
aF0.9760147601476015
aI0
aF0.9768518518518519
aI0
aI0
aF0.9744597249508841
aI0
asg101
(lp381
g54
(g58
S'\x93\x07\x89\xe6\xb0b\xe7?'
p382
tp383
Rp384
ag54
(g58
S'\xd1[\x17j?\x8c\xe9?'
p385
tp386
Rp387
ag54
(g58
S'\x13Eqkn\xa1\xe7?'
p388
tp389
Rp390
ag54
(g58
S'b\xa9\xe2\x16\x1c\xf4\xe7?'
p391
tp392
Rp393
ag54
(g58
S'\xcdeh\xe3S\x90\xe5?'
p394
tp395
Rp396
ag54
(g58
S'9\x80\xa8\x05\nW\xe7?'
p397
tp398
Rp399
ag54
(g58
S'o\xb7U*\x86[\xe5?'
p400
tp401
Rp402
ag54
(g58
S'\xf75\x86\xe8\xc6\xa6\xe6?'
p403
tp404
Rp405
ag54
(g58
S',\xb1WWF\xc8\xe7?'
p406
tp407
Rp408
ag54
(g58
S'\x02\xd4\t\x85~\xa8\xe6?'
p409
tp410
Rp411
asssI700
(dp412
S'NB_Naive'
p413
(dp414
S'toaru-majutsu-no-index'
p415
(lp416
I0
aI0
aI0
aI0
aI0
aI0
aI0
aI0
aI0
aI0
asS'fairy-tail'
p417
(lp418
I0
aI0
aF0.9344827586206896
aF0.9825673534072901
aI0
aI0
aI0
aF0.9344827586206896
aF0.9825673534072901
aI0
asS'others'
p419
(lp420
F0.6268817204301075
aF0.5955414012738853
aF0.5872156013001083
aF0.656084656084656
aF0.7027310924369747
aF0.6268817204301075
aF0.5955414012738853
aF0.5872156013001083
aF0.656084656084656
aF0.7027310924369747
asS'manga-production'
p421
(lp422
I0
aI0
aI0
aI0
aI0
aI0
aI0
aI0
aI0
aI0
asS'culture'
p423
(lp424
I0
aI0
aI0
aI0
aI0
aI0
aI0
aI0
aI0
aI0
asS'neon-genesis-evangelion'
p425
(lp426
I0
aI0
aI0
aI0
aI0
aI0
aI0
aI0
aI0
aI0
asS'pokemon'
p427
(lp428
I0
aI0
aI0
aI0
aI0
aI0
aI0
aI0
aI0
aI0
asS'japanese-language'
p429
(lp430
I0
aI0
aI0
aI0
aI0
aI0
aI0
aI0
aI0
aI0
asS'fullmetal-alchemist'
p431
(lp432
F0.966832504145937
aF0.9460370994940978
aF0.9508771929824561
aF0.9872611464968153
aF0.9852724594992637
aF0.966832504145937
aF0.9460370994940978
aF0.9508771929824561
aF0.9872611464968153
aF0.9852724594992637
asS'fate-stay-night'
p433
(lp434
I0
aI0
aI0
aI0
aI0
aI0
aI0
aI0
aI0
aI0
asS'tropes'
p435
(lp436
I0
aI0
aI0
aI0
aI0
aI0
aI0
aI0
aI0
aI0
asS'one-piece'
p437
(lp438
F0.9604612850082372
aF0.9557069846678024
aF0.9048414023372288
aF0.9597523219814241
aF0.9653679653679653
aF0.9604612850082372
aF0.9557069846678024
aF0.9048414023372288
aF0.9597523219814241
aF0.9653679653679653
asS'music'
p439
(lp440
I0
aI0
aI0
aI0
aI0
aI0
aI0
aI0
aI0
aI0
asS'sword-art-online'
p441
(lp442
I0
aI0
aI0
aI0
aI0
aI0
aI0
aI0
aI0
aI0
asS'naruto'
p443
(lp444
F0.9268680445151033
aF0.9444444444444444
aF0.9360967184801382
aF0.9717868338557993
aF0.9823788546255506
aF0.9268680445151033
aF0.9444444444444444
aF0.9360967184801382
aF0.9717868338557993
aF0.9823788546255506
asS'shingeki-no-kyojin'
p445
(lp446
I0
aI0
aI0
aI0
aI0
aI0
aI0
aI0
aI0
aI0
asS'resources'
p447
(lp448
I0
aI0
aI0
aI0
aI0
aI0
aI0
aI0
aI0
aI0
asS'monogatari-series'
p449
(lp450
I0
aI0
aI0
aI0
aI0
aI0
aI0
aI0
aI0
aI0
asS'anime-production'
p451
(lp452
I0
aI0
aI0
aI0
aI0
aI0
aI0
aI0
aI0
aI0
asS'anime-history'
p453
(lp454
I0
aI0
aI0
aI0
aI0
aI0
aI0
aI0
aI0
aI0
asS'bleach'
p455
(lp456
F0.9388083735909822
aI0
aF0.9748201438848921
aI0
aF0.9911111111111112
aF0.9388083735909822
aI0
aF0.9748201438848921
aI0
aF0.9911111111111112
asS'from-the-new-world'
p457
(lp458
I0
aI0
aI0
aI0
aI0
aI0
aI0
aI0
asS'madoka-magica'
p459
(lp460
F0.9948805460750854
aF0.9790575916230366
aI0
aI0
aF0.9940564635958395
aF0.9948805460750854
aF0.9790575916230366
aI0
aI0
aF0.9940564635958395
asS'dragon-ball'
p461
(lp462
F0.9620462046204621
aI0
aI0
aI0
aI0
aF0.9620462046204621
aI0
aI0
aI0
aI0
asS'mean_weighted'
p463
(lp464
g54
(g58
S'\xa8\x839\xdeGB\xe3?'
p465
tp466
Rp467
ag54
(g58
S'w\xe5v\xe5\xeb\xd9\xe2?'
p468
tp469
Rp470
ag54
(g58
S'\xf4\x8e\xc1 \xceF\xe4?'
p471
tp472
Rp473
ag54
(g58
S'\xf8i\xee\xd0_\x1f\xe4?'
p474
tp475
Rp476
ag54
(g58
S'sU\x9a\x17R\xdf\xe6?'
p477
tp478
Rp479
ag54
(g58
S'\xa8\x839\xdeGB\xe3?'
p480
tp481
Rp482
ag54
(g58
S'w\xe5v\xe5\xeb\xd9\xe2?'
p483
tp484
Rp485
ag54
(g58
S'\xf4\x8e\xc1 \xceF\xe4?'
p486
tp487
Rp488
ag54
(g58
S'\xf8i\xee\xd0_\x1f\xe4?'
p489
tp490
Rp491
ag54
(g58
S'sU\x9a\x17R\xdf\xe6?'
p492
tp493
Rp494
asS'death-note'
p495
(lp496
F0.9864636209813875
aF0.9842105263157894
aF0.9783393501805054
aI0
aF0.9940564635958395
aF0.9864636209813875
aF0.9842105263157894
aF0.9783393501805054
aI0
aF0.9940564635958395
asS'code-geass'
p497
(lp498
F0.9965811965811966
aF0.9824868651488616
aF0.9801084990958409
aF0.988835725677831
aF0.9780701754385965
aF0.9965811965811966
aF0.9824868651488616
aF0.9801084990958409
aF0.988835725677831
aF0.9780701754385965
asS'hunter-x-hunter'
p499
(lp500
I0
aI0
aI0
aI0
aI0
aI0
aI0
aI0
aI0
aI0
asS'identification-request'
p501
(lp502
F0.9137931034482759
aF0.8862559241706162
aF0.8841761827079935
aF0.8972503617945007
aF0.8802631578947369
aF0.9137931034482759
aF0.8862559241706162
aF0.8841761827079935
aF0.8972503617945007
aF0.8802631578947369
asS'terminology'
p503
(lp504
I0
aI0
aI0
aI0
aI0
aI0
aI0
aI0
aI0
aI0
asS'mean'
p505
(lp506
g54
(g58
S'\t\xc5\x91\nFw\xd4?'
p507
tp508
Rp509
ag54
(g58
S'\x96\x9cD\xaai\r\xd0?'
p510
tp511
Rp512
ag54
(g58
S'\xe9Gu\xf7\xb5\xf1\xd1?'
p513
tp514
Rp515
ag54
(g58
S'L\x07\xc0\x06\xc1p\xcc?'
p516
tp517
Rp518
ag54
(g58
S'\xabk\xdar\x18^\xd3?'
p519
tp520
Rp521
ag54
(g58
S'\t\xc5\x91\nFw\xd4?'
p522
tp523
Rp524
ag54
(g58
S'\x96\x9cD\xaai\r\xd0?'
p525
tp526
Rp527
ag54
(g58
S'\xe9Gu\xf7\xb5\xf1\xd1?'
p528
tp529
Rp530
ag54
(g58
S'L\x07\xc0\x06\xc1p\xcc?'
p531
tp532
Rp533
ag54
(g58
S'\xabk\xdar\x18^\xd3?'
p534
tp535
Rp536
assS'NB_Smote'
p537
(dp538
g415
(lp539
I0
aI0
aF0.9802867383512545
aI0
aI0
aI0
aI0
aF0.9819168173598554
aI0
aI0
asg417
(lp540
F0.9646365422396856
aF0.9720149253731343
aF0.9562937062937062
aF0.978441127694859
aF0.9741935483870968
aF0.963531669865643
aF0.9775700934579439
aF0.9559859154929577
aF0.9785123966942149
aF0.9789983844911146
asg419
(lp541
F0.6168341708542714
aF0.6679487179487179
aF0.7021822849807445
aF0.7239263803680982
aF0.7392900856793145
aF0.6282853566958698
aF0.6739690721649485
aF0.6997422680412371
aF0.7281672816728167
aF0.73992673992674
asg421
(lp542
F0.9608610567514677
aF0.9720149253731343
aF0.9647266313932981
aF0.9866220735785953
aF0.975767366720517
aF0.9616858237547893
aF0.9721189591078067
aF0.9661921708185054
aF0.988313856427379
aF0.9789983844911146
asg423
(lp543
F0.9406130268199234
aF0.9507299270072993
aF0.961335676625659
aI0
aI0
aF0.943609022556391
aF0.9561243144424132
aF0.9576719576719577
aI0
aI0
asg425
(lp544
F0.982
aI0
aF0.9820466786355476
aI0
aF0.9885433715220949
aF0.9823874755381604
aI0
aF0.9836956521739131
aI0
aF0.9885807504078303
asg427
(lp545
F0.9627450980392157
aF0.9702048417132216
aF0.9750445632798574
aI0
aI0
aF0.9616858237547893
aF0.966728280961183
aF0.9731182795698925
aF0.988313856427379
aI0
asg429
(lp546
F0.9442307692307692
aF0.9270462633451957
aF0.9546247818499127
aF0.9640522875816994
aF0.9617834394904459
aF0.9453860640301318
aF0.9273049645390071
aF0.9476439790575916
aF0.9594813614262561
aF0.9680511182108626
asg431
(lp547
F0.9388145315487572
aF0.9774859287054409
aF0.9698581560283688
aF0.9735973597359736
aF0.9805194805194806
aF0.9453860640301318
aF0.9794007490636704
aF0.9644760213143873
aF0.9752883031301482
aF0.9805825242718447
asg433
(lp548
F0.9761431411530815
aF0.9886148007590133
aF0.9820466786355476
aF0.9915966386554622
aF0.9853181076672104
aF0.9785575048732943
aF0.9886578449905482
aF0.9819168173598554
aF0.9932885906040269
aF0.9837662337662337
asg435
(lp549
F0.8862815884476535
aF0.9172535211267606
aF0.9224283305227656
aF0.959349593495935
aF0.9393468118195957
aF0.8932384341637011
aF0.912739965095986
aF0.923469387755102
aF0.9563812600969306
aF0.9453978159126365
asg437
(lp550
F0.9109461966604824
aF0.9438405797101449
aF0.9177852348993288
aF0.9455128205128205
aF0.9511811023622048
aF0.9177330895795247
aF0.9491833030852994
aF0.9172297297297297
aF0.9396825396825397
aF0.942457231726283
asg439
(lp551
F0.9800399201596807
aI0
aF0.9733096085409253
aF0.959349593495935
aF0.9633173843700159
aF0.9823874755381604
aI0
aF0.9713774597495528
aF0.9579288025889967
aF0.964968152866242
asg441
(lp552
F0.9722772277227723
aF0.9720149253731343
aF0.9664310954063604
aF0.9849749582637729
aF0.9853181076672104
aF0.974757281553398
aF0.966728280961183
aF0.9644760213143873
aF0.9833887043189369
aF0.9837662337662337
asg443
(lp553
F0.9515503875968992
aF0.9404332129963899
aF0.9480069324090121
aF0.9719934102141681
aF0.9853181076672104
aF0.9471698113207547
aF0.9406474820143885
aF0.9443478260869566
aF0.9704918032786886
aF0.9789983844911146
asg445
(lp554
F0.9780876494023905
aF0.9559633027522936
aF0.9802867383512545
aF0.9688013136288999
aF0.9821138211382113
aF0.984313725490196
aF0.9578754578754579
aF0.9783783783783784
aF0.9720853858784894
aF0.9821717990275527
asg447
(lp555
I0
aI0
aF0.9750445632798574
aF0.9640522875816994
aI0
aI0
aI0
aF0.9713774597495528
aF0.965742251223491
aI0
asg449
(lp556
I0
aF0.9455535390199638
aI0
aF0.9752066115702479
aI0
aI0
aF0.9543795620437956
aI0
aF0.9736842105263158
aI0
asg451
(lp557
F0.8364565587734242
aF0.8998272884283247
aF0.899671052631579
aF0.9119010819165378
aF0.9320987654320988
aF0.8436974789915966
aF0.8955479452054794
aF0.9080267558528428
aF0.9164086687306502
aF0.9323076923076923
asg453
(lp558
F0.9552529182879378
aF0.9472727272727273
aF0.9733096085409253
aF0.9752066115702479
aI0
aF0.952561669829222
aF0.9423423423423424
aF0.9713774597495528
aF0.9736842105263158
aF0.9853658536585366
asg455
(lp559
F0.9316888045540797
aF0.9630314232902033
aF0.9596491228070175
aF0.9752066115702479
aF0.9853181076672104
aF0.9313543599257885
aF0.9596330275229358
aF0.9576719576719577
aF0.976897689768977
aF0.9853658536585366
asg457
(lp560
F0.9780876494023905
aI0
aI0
aI0
aF0.9823874755381604
aI0
aI0
aI0
asg459
(lp561
F0.9761431411530815
aF0.9666048237476809
aF0.9802867383512545
aF0.9899328859060402
aF0.9950576606260296
aF0.9766536964980544
aF0.9649446494464945
aF0.98014440433213
aF0.988313856427379
aF0.9950738916256158
asg461
(lp562
F0.9665354330708661
aF0.9648148148148148
aF0.9802867383512545
aF0.9849749582637729
aF0.9789303079416531
aF0.9691119691119691
aF0.9631675874769797
aF0.9748653500897666
aF0.9833887043189369
aF0.9774193548387097
asg463
(lp563
g54
(g58
S'\xaaQ\xf3\xe9\xed\xe7\xe8?'
p564
tp565
Rp566
ag54
(g58
S"\xa7}\x0e'\xc2>\xea?"
p567
tp568
Rp569
ag54
(g58
S'sf\x926\x94\xea\xea?'
p570
tp571
Rp572
ag54
(g58
S'\xe1\xce\xc3mm\xcf\xea?'
p573
tp574
Rp575
ag54
(g58
S'W\xb5\x19\x91\x13\xd3\xea?'
p576
tp577
Rp578
ag54
(g58
S'\xf5\x12\xce6>\x17\xe9?'
p579
tp580
Rp581
ag54
(g58
S'\x97~\xe1.\xd5M\xea?'
p582
tp583
Rp584
ag54
(g58
S'\xcc\x05\xb0\xdfd\xec\xea?'
p585
tp586
Rp587
ag54
(g58
S'\xf0\xf6\xa8\xb7[\x01\xeb?'
p588
tp589
Rp590
ag54
(g58
S'\xe3\x0b\x83\xda\xbd\xee\xea?'
p591
tp592
Rp593
asg495
(lp594
F0.9859437751004017
aF0.9830188679245283
aF0.9820466786355476
aF0.9866220735785953
aF0.9869281045751634
aF0.9862475442043221
aF0.9830827067669173
aF0.9836956521739131
aF0.9916247906197655
aF0.9901960784313726
asg497
(lp595
F0.9899193548387096
aF0.9756554307116105
aF0.9838129496402878
aF0.9866220735785953
aF0.9837133550488599
aF0.9901380670611439
aF0.9721189591078067
aF0.9836956521739131
aF0.9850249584026622
aF0.9821717990275527
asg499
(lp596
I0
aF0.9811676082862524
aF0.9855855855855856
aF0.9752066115702479
aF0.9837133550488599
aI0
aF0.9794007490636704
aF0.9836956521739131
aF0.9720853858784894
aF0.9805825242718447
asg501
(lp597
F0.9406130268199234
aF0.8875638841567292
aF0.8967213114754098
aF0.85383502170767
aF0.8640915593705293
aF0.9400749063670412
aF0.8864406779661017
aF0.9034941763727121
aF0.8592162554426706
aF0.8657142857142858
asg503
(lp598
F0.9742063492063492
aF0.9756554307116105
aI0
aF0.9833333333333333
aI0
aF0.9766536964980544
aF0.9757462686567164
aI0
aF0.9850249584026622
aI0
asg505
(lp599
g54
(g58
S'\xdc9\x1e\xf6\x99\xee\xe9?'
p600
tp601
Rp602
ag54
(g58
S'/\x91\x1d]\x07\xfd\xe8?'
p603
tp604
Rp605
ag54
(g58
S'!\x81d\x87SP\xeb?'
p606
tp607
Rp608
ag54
(g58
S'K\x96\xc1\xfd\xb7X\xe9?'
p609
tp610
Rp611
ag54
(g58
S'eA*\xf7\x14\xff\xe6?'
p612
tp613
Rp614
ag54
(g58
S'1\xaa\xae\x91\x02\xff\xe9?'
p615
tp616
Rp617
ag54
(g58
S"z\xe3\x06'\x10\xfd\xe8?"
p618
tp619
Rp620
ag54
(g58
S'\x089\x98\x89\xb5I\xeb?'
p621
tp622
Rp623
ag54
(g58
S'\xa6\x16\x88t\xf8p\xea?'
p624
tp625
Rp626
ag54
(g58
S'\xba\x1a,No \xe8?'
p627
tp628
Rp629
assS'NB_TunedLearner'
p630
(dp631
g415
(lp632
I0
aI0
aI0
aI0
aI0
aI0
aI0
aI0
aI0
aI0
asg417
(lp633
F0.966804979253112
aF0.9770992366412213
aF0.967266775777414
aF0.9802631578947368
aF0.9777424483306836
aF0.9698189134808853
aF0.9772727272727273
aF0.9696485623003195
aF0.9805510534846029
aF0.9781591263650546
asg419
(lp634
F0.5913705583756346
aF0.6649350649350649
aF0.7509529860228716
aF0.7277167277167277
aF0.7481751824817519
aF0.6040100250626567
aF0.6701298701298701
aF0.7512376237623762
aF0.7262905162064826
aF0.736780258519389
asg421
(lp635
F0.9529652351738241
aF0.973384030418251
aF0.986644407345576
aF0.9834983498349835
aF0.9792993630573248
aF0.9506903353057199
aF0.9644859813084112
aF0.9902120717781403
aF0.9853420195439739
aF0.9827586206896551
asg423
(lp636
F0.9433198380566802
aF0.9516728624535316
aF0.9752475247524752
aI0
aI0
aF0.9488188976377953
aF0.9520295202952029
aI0
aF0.971107544141252
aI0
asg425
(lp637
F0.9728601252609603
aI0
aF0.985
aI0
aF0.9871589085072231
aF0.9757085020242915
aI0
aF0.9918300653594772
aI0
aF0.9889589905362776
asg427
(lp638
F0.9471544715447154
aF0.9642184557438794
aF0.9768595041322314
aF0.9900332225913622
aI0
aF0.9488188976377953
aF0.9662921348314607
aF0.982200647249191
aF0.9901800327332242
aI0
asg429
(lp639
F0.9395161290322581
aF0.9258589511754068
aF0.9563106796116505
aF0.9612903225806452
aF0.9609375
aF0.9450980392156862
aF0.9280575539568345
aF0.9634920634920635
aF0.952755905511811
aF0.9675925925925926
asg431
(lp640
F0.9529652351738241
aF0.9770992366412213
aF0.9720394736842105
aF0.9770491803278688
aF0.9887459807073955
aF0.9544554455445544
aF0.9772727272727273
aF0.9790322580645161
aF0.9789644012944984
aF0.9781591263650546
asg433
(lp641
F0.9708333333333333
aF0.9884169884169884
aF0.986644407345576
aF0.9916805324459235
aF0.9871589085072231
aF0.9737373737373738
aF0.9866156787762906
aF0.9853896103896104
aF0.988562091503268
aF0.9827586206896551
asg435
(lp642
F0.8726591760299626
aF0.9142857142857143
aF0.9263322884012539
aF0.962843295638126
aF0.9418070444104135
aF0.8860294117647058
aF0.9132743362831859
aF0.9324116743471582
aF0.9618441971383148
aF0.9457013574660633
asg437
(lp643
F0.9173228346456693
aF0.9446494464944649
aF0.933649289099526
aF0.952076677316294
aF0.9490740740740741
aF0.9216061185468452
aF0.9467889908256881
aF0.9338461538461539
aF0.9557661927330173
aF0.95
asg439
(lp644
F0.9708333333333333
aF0.9770992366412213
aF0.9736408566721582
aF0.9597423510466989
aF0.9654631083202512
aF0.9698189134808853
aF0.9809885931558935
aF0.9806138933764136
aF0.969551282051282
aF0.9781591263650546
asg441
(lp645
F0.9648033126293996
aF0.9678638941398866
aF0.9833610648918469
aF0.9867549668874173
aF0.9871589085072231
aF0.9659318637274549
aF0.9608938547486033
aF0.9853896103896104
aF0.983739837398374
aF0.9889589905362776
asg443
(lp646
F0.9452332657200812
aF0.9429097605893186
aF0.9532258064516129
aF0.9675324675324676
aF0.984
aF0.9469548133595285
aF0.9467889908256881
aF0.95141065830721
aF0.971107544141252
aF0.9812206572769953
asg445
(lp647
F0.9628099173553719
aF0.9534450651769087
aF0.9800995024875622
aF0.965964343598055
aF0.984
aF0.9698189134808853
aF0.9573283858998145
aF0.9853896103896104
aF0.9649122807017544
aF0.9874015748031496
asg447
(lp648
I0
aF0.9570093457943926
aF0.9768595041322314
aF0.9581993569131833
aF0.9792993630573248
aI0
aF0.9591078066914498
aI0
aF0.9758064516129032
aI0
asg449
(lp649
I0
aF0.9394495412844037
aI0
aF0.9706840390879479
aI0
aI0
aF0.943327239488117
aI0
aF0.969551282051282
aI0
asg451
(lp650
F0.8306595365418895
aF0.9029982363315696
aF0.9134466769706336
aF0.9183359013867488
aF0.9360730593607306
aF0.8339100346020761
aF0.9036777583187391
aF0.9100449775112444
aF0.9264931087289433
aF0.9316493313521546
asg453
(lp651
F0.9648033126293996
aF0.9411764705882353
aI0
aF0.9754500818330606
aF0.9919354838709677
aF0.964
aF0.9485294117647058
aI0
aF0.9758064516129032
aI0
asg455
(lp652
F0.9301397205588823
aF0.9678638941398866
aF0.967266775777414
aF0.9786535303776683
aF0.9887459807073955
aF0.9359223300970874
aF0.9699248120300752
aF0.9727564102564102
aF0.9742351046698873
aF0.990521327014218
asg457
(lp653
F0.9648033126293996
aF0.9752380952380952
aF0.9800995024875622
aI0
aF0.9698189134808853
aF0.9717514124293786
aF0.988599348534202
aI0
asg459
(lp654
F0.966804979253112
aF0.9642184557438794
aF0.9800995024875622
aF0.994991652754591
aF0.9935379644588045
aF0.9678714859437751
aF0.9626865671641791
aF0.982200647249191
aF0.993431855500821
aF0.990521327014218
asg461
(lp655
F0.9529652351738241
aF0.9678638941398866
aF0.9720394736842105
aF0.9834983498349835
aF0.9777424483306836
aF0.9544554455445544
aF0.9681050656660413
aF0.9727564102564102
aF0.9742351046698873
aF0.9812206572769953
asg463
(lp656
g54
(g58
S'\x1c\xa8\r)\xdfx\xe8?'
p657
tp658
Rp659
ag54
(g58
S'\xe1\xb7\xc0\x05W\xa1\xea?'
p660
tp661
Rp662
ag54
(g58
S'\x00\xdehT\xbcP\xeb?'
p663
tp664
Rp665
ag54
(g58
S'\xfe\x9f\xbc\xc1\xa91\xeb?'
p666
tp667
Rp668
ag54
(g58
S'Y\xd9\xb0\xd15\x1e\xeb?'
p669
tp670
Rp671
ag54
(g58
S'\xddD\x1az\xb4\xb7\xe8?'
p672
tp673
Rp674
ag54
(g58
S'\xff\x8e\xe7v\xa2\xb7\xea?'
p675
tp676
Rp677
ag54
(g58
S'\x8b\xee\x12\xc3\xf1\xa8\xea?'
p678
tp679
Rp680
ag54
(g58
S'\xfc\x9e]Ho\xac\xeb?'
p681
tp682
Rp683
ag54
(g58
S'vE\xa3U8\t\xeb?'
p684
tp685
Rp686
asg495
(lp687
F0.9748953974895398
aF0.9846153846153847
aF0.9720394736842105
aF0.9933333333333333
aF0.9935379644588045
aF0.9757085020242915
aF0.9866156787762906
aF0.9758842443729904
aF0.988562091503268
aF0.9827586206896551
asg497
(lp688
F0.9914893617021276
aF0.9752380952380952
aF0.986644407345576
aF0.9900332225913622
aF0.9792993630573248
aF0.9917695473251029
aF0.9754253308128544
aF0.988599348534202
aF0.9901800327332242
aF0.9843014128728415
asg499
(lp689
I0
aF0.9715370018975332
aF0.9882943143812709
aF0.965964343598055
aF0.9824281150159745
aI0
aF0.9717514124293786
aF0.9902120717781403
aF0.969551282051282
aF0.9858490566037735
asg501
(lp690
F0.9568788501026694
aF0.893542757417103
aF0.9120370370370371
aF0.8751835535976505
aF0.8698727015558698
aF0.9601593625498008
aF0.8942807625649913
aF0.9073243647234679
aF0.8923303834808259
aF0.8818565400843882
asg503
(lp691
F0.9688149688149689
aF0.9660377358490566
aI0
aF0.9802631578947368
aI0
aF0.9776876267748479
aF0.9644859813084112
aI0
aF0.9853420195439739
aI0
asg505
(lp692
g54
(g58
S'\xefi\x15H\xab\xca\xe9?'
p693
tp694
Rp695
ag54
(g58
S'\xf1\xcb\xba)\xb5+\xec?'
p696
tp697
Rp698
ag54
(g58
S'\x0c9\x07\x81/o\xea?'
p699
tp700
Rp701
ag54
(g58
S'\xffl3\xd7\ry\xea?'
p702
tp703
Rp704
ag54
(g58
S'V\xe0>G\x8aK\xe9?'
p705
tp706
Rp707
ag54
(g58
S'\x06\xe43\x19\xc9\xe3\xe9?'
p708
tp709
Rp710
ag54
(g58
S'\xffu\x14\x8a\xd60\xec?'
p711
tp712
Rp713
ag54
(g58
S'x\xea\x06\xde\x87Z\xe8?'
p714
tp715
Rp716
ag54
(g58
S'\xa4\x82[\xdc\xfe\x94\xeb?'
p717
tp718
Rp719
ag54
(g58
S'\x97\xa5\x06o\xb6\x0e\xe7?'
p720
tp721
Rp722
assS'NB_TunedSmote'
p723
(dp724
g415
(lp725
I0
aI0
aI0
aI0
aI0
aI0
aI0
aF0.973404255319149
aI0
aI0
asg417
(lp726
F0.9574468085106383
aF0.9772727272727273
aF0.9503424657534246
aF0.9768595041322314
aF0.9787928221859706
aF0.9545454545454546
aF0.9700934579439252
aF0.9481865284974094
aF0.9746192893401016
aF0.9697452229299363
asg419
(lp727
F0.6257901390644753
aF0.6581632653061225
aF0.7133676092544987
aF0.7296296296296296
aF0.7281553398058253
aF0.6052631578947368
aF0.6594663278271918
aF0.7065637065637066
aF0.7119901112484549
aF0.7390776699029126
asg421
(lp728
F0.9724950884086444
aF0.9699248120300752
aF0.9702797202797203
aI0
aF0.9836065573770492
aF0.9757575757575757
aF0.9682835820895522
aF0.9803571428571428
aI0
aF0.9790996784565916
asg423
(lp729
F0.9482758620689655
aF0.9608938547486033
aF0.9652173913043478
aI0
aI0
aF0.9288461538461539
aF0.9593345656192237
aF0.9597902097902098
aI0
aI0
asg425
(lp730
F0.9763313609467456
aI0
aF0.9788359788359788
aI0
aF0.9917355371900827
aF0.9698795180722891
aI0
aF0.9856373429084381
aI0
aF0.9886363636363636
asg427
(lp731
F0.9593023255813954
aF0.9754253308128544
aF0.980565371024735
aI0
aI0
aF0.9507874015748031
aF0.9646840148698885
aF0.973404255319149
aF0.9913941480206541
aI0
asg429
(lp732
F0.9555984555984556
aF0.9297297297297298
aF0.9702797202797203
aF0.9578606158833063
aF0.9584664536741214
aF0.943359375
aF0.9402173913043478
aF0.951473136915078
aF0.9568106312292359
aF0.9682034976152624
asg431
(lp733
F0.9428571428571428
aF0.9735849056603774
aF0.9719789842381786
aF0.967266775777414
aF0.9868421052631579
aF0.9452054794520548
aF0.9719101123595506
aF0.9682539682539683
aF0.9713322091062394
aF0.9790996784565916
asg433
(lp734
F0.9801980198019802
aF0.9885057471264368
aF0.9823008849557522
aF0.9882943143812709
aF0.9787928221859706
aF0.971830985915493
aF0.9866920152091255
aF0.9856373429084381
aF0.9896907216494846
aF0.9822580645161291
asg435
(lp735
F0.8886894075403949
aF0.900523560209424
aF0.9188741721854304
aF0.9516908212560387
aF0.9523809523809523
aF0.8862385321100917
aF0.9073426573426573
aF0.9211409395973155
aF0.9504950495049505
aF0.9500780031201248
asg437
(lp736
F0.9339622641509434
aF0.926391382405745
aF0.9234608985024958
aF0.9547657512116317
aF0.9448818897637795
aF0.9078947368421053
aF0.9505494505494505
aF0.9258010118043845
aF0.9442622950819672
aF0.9441860465116279
asg439
(lp737
F0.9763313609467456
aF0.9847328244274809
aF0.980565371024735
aF0.9656862745098039
aF0.9724473257698542
aF0.9777327935222672
aI0
aF0.9786096256684492
aF0.9473684210526315
aF0.9712918660287081
asg441
(lp738
F0.9649122807017544
aF0.9662921348314607
aF0.9702797202797203
aF0.9882943143812709
aF0.975609756097561
aF0.9757575757575757
aF0.9700934579439252
aF0.973404255319149
aF0.9879931389365352
aF0.9806763285024155
asg443
(lp739
F0.9339622641509434
aF0.9398907103825137
aF0.9438775510204082
aF0.9625407166123778
aF0.9787928221859706
aF0.936046511627907
aF0.941923774954628
aF0.9352640545144804
aF0.964824120603015
aF0.9838449111470113
asg445
(lp740
F0.9782608695652174
aF0.9681050656660413
aF0.9702797202797203
aF0.9736408566721582
aF0.9771986970684039
aF0.9777327935222672
aF0.9719101123595506
aF0.9768683274021353
aF0.9713322091062394
aF0.9854368932038835
asg447
(lp741
I0
aI0
aF0.9736842105263158
aI0
aI0
aI0
aI0
aF0.9751332149200711
aI0
aI0
asg449
(lp742
I0
aF0.9502762430939227
aF0.9652173913043478
aF0.9800995024875622
aI0
aI0
aF0.9505494505494505
aI0
aF0.9779286926994907
aI0
asg451
(lp743
F0.8347386172006745
aF0.8716216216216216
aF0.8908507223113965
aF0.9120370370370371
aF0.9244992295839753
aF0.8473684210526315
aF0.8979238754325259
aF0.9
aF0.9142857142857143
aF0.9311926605504587
asg453
(lp744
F0.9519230769230769
aF0.9537892791127541
aF0.9753954305799648
aF0.9768595041322314
aF0.9819967266775778
aF0.966
aF0.9505494505494505
aF0.9665492957746479
aF0.976271186440678
aF0.9838449111470113
asg455
(lp745
F0.9339622641509434
aF0.9644859813084112
aF0.9602076124567474
aF0.9720394736842105
aF0.9852216748768473
aF0.9217557251908397
aF0.9575645756457565
aF0.9682539682539683
aF0.9713322091062394
aF0.9790996784565916
asg457
(lp746
F0.9801980198019802
aI0
aI0
aI0
aF0.9777327935222672
aF0.9774011299435028
aI0
aI0
asg459
(lp747
F0.9821428571428571
aF0.9772727272727273
aF0.977112676056338
aF0.9882943143812709
aF0.9917355371900827
aF0.9797160243407708
aF0.9700934579439252
aF0.9821109123434705
aF0.9846153846153847
aF0.99185667752443
asg461
(lp748
F0.9555984555984556
aF0.9717514124293786
aF0.9753954305799648
aF0.985
aF0.967741935483871
aF0.9602385685884692
aF0.9682835820895522
aF0.9768683274021353
aF0.9779286926994907
aF0.9759615384615384
asg463
(lp749
g54
(g58
S'\x15\x1e\x19\xe3@\x19\xe9?'
p750
tp751
Rp752
ag54
(g58
S'\x9f\xac\x05\x1a\xe9%\xea?'
p753
tp754
Rp755
ag54
(g58
S'I\xb2(efJ\xeb?'
p756
tp757
Rp758
ag54
(g58
S'\x0f\xb7\xa4\x1d^\x94\xea?'
p759
tp760
Rp761
ag54
(g58
S'Gl\x19l\x0b\xb4\xea?'
p762
tp763
Rp764
ag54
(g58
S'\x8a\xc4\x87[\xab\xa3\xe8?'
p765
tp766
Rp767
ag54
(g58
S'\xeb\xf3\x17\xf6\xdea\xea?'
p768
tp769
Rp770
ag54
(g58
S'.\x9a5\xb7\x06\xf1\xea?'
p771
tp772
Rp773
ag54
(g58
S'z\xfd|+\xc5S\xea?'
p774
tp775
Rp776
ag54
(g58
S'\xf4\xbf\x10\x9b-\xe1\xea?'
p777
tp778
Rp779
asg495
(lp780
F0.9840954274353877
aF0.9809885931558935
aF0.9875444839857651
aF0.9882943143812709
aF0.9868421052631579
aF0.9797160243407708
aF0.9810964083175804
aF0.973404255319149
aF0.9896907216494846
aF0.99185667752443
asg497
(lp781
F0.9860557768924303
aF0.9772727272727273
aF0.9788359788359788
aF0.9817275747508306
aF0.9819967266775778
aF0.9837067209775967
aF0.9737335834896811
aF0.9786096256684492
aF0.9896907216494846
aF0.9838449111470113
asg499
(lp782
F0.9763313609467456
aF0.9772727272727273
aF0.9910714285714286
aF0.9656862745098039
aF0.9900990099009901
aI0
aF0.9774011299435028
aF0.9821109123434705
aF0.972972972972973
aF0.9902439024390244
asg501
(lp783
F0.9339622641509434
aF0.8896551724137931
aF0.8966074313408724
aF0.8615160349854227
aF0.8571428571428571
aF0.936046511627907
aF0.8871794871794871
aF0.9
aF0.8458149779735683
aF0.8613861386138614
asg503
(lp784
F0.9724950884086444
aF0.9754253308128544
aI0
aF0.985
aI0
aF0.9797160243407708
aF0.9737335834896811
aI0
aF0.9713322091062394
aI0
asg505
(lp785
g54
(g58
S'l\xcbrn\xd9\x04\xeb?'
p786
tp787
Rp788
ag54
(g58
S'\xcd\xb7o\x994\r\xea?'
p789
tp790
Rp791
ag54
(g58
S'\x8e\x85\xbf\x85\xf5R\xeb?'
p792
tp793
Rp794
ag54
(g58
S'W+zu\xd5/\xe7?'
p795
tp796
Rp797
ag54
(g58
S'\xd9\x164\xca\xef\x15\xe8?'
p798
tp799
Rp800
ag54
(g58
S'\xd9\xa9\xb9\xf9\x13\xdd\xe9?'
p801
tp802
Rp803
ag54
(g58
S'\xb8\xce\xa1p\x81\x12\xea?'
p804
tp805
Rp806
ag54
(g58
S'\xc1\x03#\xff\x8dN\xeb?'
p807
tp808
Rp809
ag54
(g58
S'\xc4\n\xe2Q\xf83\xe8?'
p810
tp811
Rp812
ag54
(g58
S'{\xd8\x13\xd1s \xe8?'
p813
tp814
Rp815
asssI100
(dp816
S'NB_Naive'
p817
(dp818
S'toaru-majutsu-no-index'
p819
(lp820
I0
aI0
aI0
aI0
aI0
aI0
aI0
aI0
aI0
aI0
asS'mean_weighted'
p821
(lp822
g54
(g58
S'\xfa<\xa0n\xed\xac\xda?'
p823
tp824
Rp825
ag54
(g58
S'V \x16\x99le\xdc?'
p826
tp827
Rp828
ag54
(g58
S'g\xb9\tg\xbc\xd0\xdb?'
p829
tp830
Rp831
ag54
(g58
S'\x0cDE\xfa\x04\xe1\xe1?'
p832
tp833
Rp834
ag54
(g58
S'\xfe\x03Z\x9b \xe4\xe2?'
p835
tp836
Rp837
ag54
(g58
S'\xfa<\xa0n\xed\xac\xda?'
p838
tp839
Rp840
ag54
(g58
S'V \x16\x99le\xdc?'
p841
tp842
Rp843
ag54
(g58
S'g\xb9\tg\xbc\xd0\xdb?'
p844
tp845
Rp846
ag54
(g58
S'\x0cDE\xfa\x04\xe1\xe1?'
p847
tp848
Rp849
ag54
(g58
S'\xfe\x03Z\x9b \xe4\xe2?'
p850
tp851
Rp852
asS'others'
p853
(lp854
F0.547806524184477
aF0.521598272138229
aF0.5204872646733112
aF0.6002155172413793
aF0.625531914893617
aF0.547806524184477
aF0.521598272138229
aF0.5204872646733112
aF0.6002155172413793
aF0.625531914893617
asS'manga-production'
p855
(lp856
I0
aI0
aI0
aI0
aI0
aI0
aI0
aI0
aI0
aI0
asS'culture'
p857
(lp858
I0
aI0
aI0
aI0
aI0
aI0
aI0
aI0
aI0
aI0
asS'neon-genesis-evangelion'
p859
(lp860
I0
aI0
aI0
aI0
aI0
aI0
aI0
aI0
aI0
aI0
asS'pokemon'
p861
(lp862
I0
aI0
aI0
aI0
aI0
aI0
aI0
aI0
aI0
aI0
asS'tropes'
p863
(lp864
I0
aI0
aI0
aI0
aI0
aI0
aI0
aI0
aI0
aI0
asS'fullmetal-alchemist'
p865
(lp866
I0
aI0
aI0
aI0
aI0
aI0
aI0
aI0
aI0
aI0
asS'fate-stay-night'
p867
(lp868
I0
aI0
aI0
aI0
aI0
aI0
aI0
aI0
aI0
aI0
asS'japanese-language'
p869
(lp870
I0
aI0
aI0
aI0
aI0
aI0
aI0
aI0
aI0
aI0
asS'one-piece'
p871
(lp872
I0
aI0
aI0
aI0
aI0
aI0
aI0
aI0
aI0
aI0
asS'music'
p873
(lp874
I0
aI0
aI0
aI0
aI0
aI0
aI0
aI0
aI0
aI0
asS'sword-art-online'
p875
(lp876
I0
aI0
aI0
aI0
aI0
aI0
aI0
aI0
aI0
aI0
asS'naruto'
p877
(lp878
F0.8411053540587219
aF0.8655913978494624
aF0.8392857142857143
aF0.9237147595356551
aF0.92018779342723
aF0.8411053540587219
aF0.8655913978494624
aF0.8392857142857143
aF0.9237147595356551
aF0.92018779342723
asS'shingeki-no-kyojin'
p879
(lp880
I0
aI0
aI0
aI0
aI0
aI0
aI0
aI0
aI0
aI0
asS'resources'
p881
(lp882
I0
aI0
aI0
aI0
aI0
aI0
aI0
aI0
aI0
aI0
asS'monogatari-series'
p883
(lp884
I0
aI0
aI0
aI0
aI0
aI0
aI0
aI0
aI0
aI0
asS'anime-production'
p885
(lp886
I0
aI0
aI0
aI0
aI0
aI0
aI0
aI0
aI0
aI0
asS'anime-history'
p887
(lp888
I0
aI0
aI0
aI0
aI0
aI0
aI0
aI0
aI0
aI0
asS'bleach'
p889
(lp890
I0
aI0
aI0
aI0
aI0
aI0
aI0
aI0
aI0
aI0
asS'from-the-new-world'
p891
(lp892
I0
aI0
aI0
aI0
aI0
aI0
aI0
aI0
asS'madoka-magica'
p893
(lp894
I0
aI0
aI0
aI0
aI0
aI0
aI0
aI0
aI0
aI0
asS'dragon-ball'
p895
(lp896
I0
aI0
aI0
aI0
aI0
aI0
aI0
aI0
aI0
aI0
asS'fairy-tail'
p897
(lp898
I0
aI0
aI0
aI0
aI0
aI0
aI0
aI0
aI0
aI0
asS'death-note'
p899
(lp900
F0.9838383838383838
aF0.9817073170731707
aF0.9791666666666666
aF0.9456706281833617
aF0.9932432432432432
aF0.9838383838383838
aF0.9817073170731707
aF0.9791666666666666
aF0.9456706281833617
aF0.9932432432432432
asS'code-geass'
p901
(lp902
I0
aI0
aI0
aI0
aI0
aI0
aI0
aI0
aI0
aI0
asS'mean'
p903
(lp904
g54
(g58
S'\xf6\xeb\xa7\xf5E\xfe\xbb?'
p905
tp906
Rp907
ag54
(g58
S'M\x1b\x87\x1a\xb2)\xbc?'
p908
tp909
Rp910
ag54
(g58
S'\x8f\xaa#m\xef\xf6\xbb?'
p911
tp912
Rp913
ag54
(g58
S'7\x85P\xc1\x82\r\xbd?'
p914
tp915
Rp916
ag54
(g58
S'YFM\xbf\xcb\xa8\xbe?'
p917
tp918
Rp919
ag54
(g58
S'\xf6\xeb\xa7\xf5E\xfe\xbb?'
p920
tp921
Rp922
ag54
(g58
S'M\x1b\x87\x1a\xb2)\xbc?'
p923
tp924
Rp925
ag54
(g58
S'\x8f\xaa#m\xef\xf6\xbb?'
p926
tp927
Rp928
ag54
(g58
S'7\x85P\xc1\x82\r\xbd?'
p929
tp930
Rp931
ag54
(g58
S'YFM\xbf\xcb\xa8\xbe?'
p932
tp933
Rp934
asS'identification-request'
p935
(lp936
F0.7983606557377049
aF0.8214285714285714
aF0.8289241622574955
aF0.8215339233038348
aF0.814404432132964
aF0.7983606557377049
aF0.8214285714285714
aF0.8289241622574955
aF0.8215339233038348
aF0.814404432132964
asS'terminology'
p937
(lp938
I0
aI0
aI0
aI0
aI0
aI0
aI0
aI0
aI0
aI0
asS'hunter-x-hunter'
p939
(lp940
I0
aI0
aI0
aI0
aI0
aI0
aI0
aI0
aI0
aI0
assS'NB_Smote'
p941
(dp942
g819
(lp943
I0
aI0
aI0
aI0
aI0
aI0
aI0
aI0
aI0
aI0
asg821
(lp944
g54
(g58
S'\xf2\x96UM\xf9#\xe0?'
p945
tp946
Rp947
ag54
(g58
S'\xc6\xfcx\xb6\xd7\xed\xe2?'
p948
tp949
Rp950
ag54
(g58
S'#K\xb4c\xc0\xc2\xe5?'
p951
tp952
Rp953
ag54
(g58
S'b\xf0\x91~\xa0&\xe6?'
p954
tp955
Rp956
ag54
(g58
S'\x0e\x89L\x1a\xff\xf4\xe4?'
p957
tp958
Rp959
ag54
(g58
S'\xce\x02\xc2\xb8\xa7\xf1\xdf?'
p960
tp961
Rp962
ag54
(g58
S'\xfev\x07\x93d|\xe3?'
p963
tp964
Rp965
ag54
(g58
S'\xdd\x19N\xafg\x02\xe5?'
p966
tp967
Rp968
ag54
(g58
S'\xd7\xac#\xa6O\xc6\xe5?'
p969
tp970
Rp971
ag54
(g58
S'\xa8X\x0b\xe3\x19\xa4\xe5?'
p972
tp973
Rp974
asg853
(lp975
F0.28691275167785235
aF0.41058394160583944
aF0.49080882352941174
aF0.5560897435897436
aF0.5487012987012987
aF0.29519071310116085
aF0.4136690647482014
aF0.49722735674676527
aF0.5530546623794212
aF0.5523349436392915
asg855
(lp976
F0.8260869565217391
aF0.8620689655172413
aF0.8959731543624161
aF0.9204244031830239
aF0.9110512129380054
aF0.8516746411483254
aF0.8582089552238806
aF0.893687707641196
aF0.9148936170212766
aF0.9245283018867925
asg857
(lp977
F0.8260869565217391
aI0
aF0.8668831168831169
aF0.9302949061662198
aI0
aF0.8054298642533937
aI0
aF0.8762214983713354
aI0
aI0
asg859
(lp978
I0
aI0
aI0
aF0.9429347826086957
aI0
aI0
aI0
aI0
aF0.9529085872576177
aI0
asg861
(lp979
F0.7808219178082192
aI0
aF0.8782894736842105
aI0
aI0
aI0
aI0
aF0.8848684210526315
aI0
aI0
asg863
(lp980
F0.7467248908296943
aF0.8152173913043478
aF0.8841059602649006
aF0.9204244031830239
aF0.8871391076115486
aF0.7705627705627706
aF0.8098591549295775
aF0.893687707641196
aF0.9222520107238605
aF0.8955613577023499
asg865
(lp981
F0.7772727272727272
aF0.8035714285714286
aF0.839622641509434
aF0.9278074866310161
aI0
aF0.777292576419214
aF0.8214285714285714
aI0
aF0.9197860962566845
aI0
asg867
(lp982
F0.8592964824120602
aF0.8458646616541353
aF0.8782894736842105
aI0
aF0.9159891598915989
aF0.8516746411483254
aF0.8712121212121212
aF0.8819672131147541
aI0
aF0.9171122994652406
asg869
(lp983
F0.7916666666666666
aF0.8395522388059702
aF0.9303135888501742
aF0.910761154855643
aF0.9135135135135135
aF0.7982062780269058
aF0.8550185873605948
aF0.9212328767123288
aF0.9148936170212766
aF0.9220430107526881
asg871
(lp984
F0.7184873949579832
aF0.7758620689655172
aF0.752112676056338
aF0.8442822384428224
aF0.8733850129198967
aF0.7385892116182573
aF0.7903780068728522
aF0.7430939226519337
aF0.8493827160493828
aF0.8772378516624041
asg873
(lp985
F0.8952879581151832
aI0
aI0
aI0
aI0
aF0.8855721393034826
aI0
aI0
aI0
aF0.8932291666666666
asg875
(lp986
F0.7953488372093023
aF0.8458646616541353
aF0.8557692307692307
aF0.9155672823218998
aF0.9086021505376344
aF0.8018018018018018
aF0.8363636363636363
aF0.856687898089172
aF0.9148936170212766
aF0.9098143236074271
asg877
(lp987
F0.6380597014925373
aF0.7009345794392523
aF0.7650429799426934
aF0.9036458333333334
aF0.8756476683937824
aF0.6544117647058824
aF0.7076923076923077
aF0.7620396600566572
aF0.8935064935064935
aF0.8886010362694301
asg879
(lp988
I0
aF0.9
aF0.9238754325259516
aF0.917989417989418
aF0.9285714285714286
aI0
aF0.8949416342412452
aF0.9243986254295533
aF0.9347826086956522
aF0.9295392953929539
asg881
(lp989
I0
aI0
aF0.8754098360655738
aI0
aI0
aI0
aI0
aF0.864951768488746
aI0
aI0
asg883
(lp990
I0
aF0.8587786259541985
aF0.898989898989899
aF0.9228723404255319
aF0.898936170212766
aI0
aF0.8712121212121212
aF0.8966666666666666
aF0.9272237196765498
aF0.9050131926121372
asg885
(lp991
F0.6428571428571429
aF0.7525083612040134
aF0.8369905956112853
aF0.8740554156171285
aF0.8918205804749341
aF0.664179104477612
aF0.756578947368421
aF0.8432601880877743
aF0.8664987405541562
aF0.9002624671916011
asg887
(lp992
F0.7402597402597403
aF0.8333333333333334
aF0.8725490196078431
aF0.9083769633507853
aF0.9209809264305178
aF0.7606837606837606
aF0.8424908424908425
aF0.8733766233766234
aF0.9124668435013262
aF0.927027027027027
asg889
(lp993
F0.7245762711864406
aF0.8754863813229572
aI0
aF0.9327956989247311
aF0.9575070821529745
aF0.7325102880658436
aF0.8582089552238806
aI0
aF0.9272237196765498
aF0.9527777777777777
asg891
(lp994
F0.8382352941176471
aF0.9109311740890689
aF0.9081632653061225
aI0
aF0.8356807511737089
aF0.9236947791164659
aF0.9087837837837838
aI0
asg893
(lp995
I0
aF0.8490566037735849
aF0.8929765886287625
aF0.9353099730458221
aI0
aI0
aF0.8778625954198473
aF0.893687707641196
aF0.9272237196765498
aI0
asg895
(lp996
F0.7702702702702703
aI0
aF0.89
aF0.9253333333333333
aF0.9209809264305178
aF0.7705627705627706
aF0.8363636363636363
aF0.8762214983713354
aF0.9272237196765498
aF0.9195710455764075
asg897
(lp997
F0.9047619047619048
aF0.9036144578313253
aF0.8668831168831169
aF0.9506849315068493
aF0.9684813753581661
aF0.9175257731958762
aF0.9019607843137255
aF0.867741935483871
aF0.9476584022038568
aF0.9554317548746518
asg899
(lp998
F0.9243243243243243
aF0.9183673469387755
aF0.9335664335664335
aF0.9532967032967034
aF0.9740634005763689
aF0.9368421052631579
aF0.92
aF0.9275862068965517
aF0.9555555555555556
aF0.9689265536723164
asg901
(lp999
I0
aI0
aF0.8870431893687708
aF0.910761154855643
aI0
aI0
aI0
aF0.8790849673202614
aF0.900523560209424
aF0.9050131926121372
asg903
(lp1000
g54
(g58
S'g\x0b^\xae\xdf\xda\xe1?'
p1001
tp1002
Rp1003
ag54
(g58
S'\xd1\xfa#\x84_\x00\xe2?'
p1004
tp1005
Rp1006
ag54
(g58
S'|LC\xb7\xfd\x97\xe6?'
p1007
tp1008
Rp1009
ag54
(g58
S'\x96\x8b\xe4\x7f\xfb\xac\xe5?'
p1010
tp1011
Rp1012
ag54
(g58
S'Hh\xb3\\\xfd\x1c\xe1?'
p1013
tp1014
Rp1015
ag54
(g58
S'\x9c\xdf\x81+\x83+\xe1?'
p1016
tp1017
Rp1018
ag54
(g58
S'\x96X\xbem\x0e\x06\xe3?'
p1019
tp1020
Rp1021
ag54
(g58
S'\xba\x91\xba\x17J\xa5\xe5?'
p1022
tp1023
Rp1024
ag54
(g58
S'\x8e\xf7j\xf9\xe4\xa2\xe4?'
p1025
tp1026
Rp1027
ag54
(g58
S'\x95\xba\x9eF\xff9\xe3?'
p1028
tp1029
Rp1030
asg935
(lp1031
F0.8300970873786407
aF0.7401315789473685
aF0.7437325905292479
aF0.7096114519427403
aF0.678714859437751
aF0.8436018957345972
aF0.7443365695792881
aF0.7472222222222222
aF0.7049180327868853
aF0.6792079207920793
asg937
(lp1032
F0.8636363636363636
aI0
aF0.9081632653061225
aF0.9302949061662198
aI0
aF0.8682926829268293
aI0
aF0.9026845637583892
aF0.9347826086956522
aI0
asg939
(lp1033
I0
aF0.872093023255814
aI0
aI0
aI0
aI0
aF0.8487084870848709
aI0
aI0
aI0
assS'NB_TunedLearner'
p1034
(dp1035
g819
(lp1036
I0
aI0
aI0
aI0
aI0
aI0
aI0
aI0
aI0
aI0
asg821
(lp1037
g54
(g58
S'0\xea\xfe\x10*\xd2\xdf?'
p1038
tp1039
Rp1040
ag54
(g58
S'\x8a\x06\x9eA1\xa5\xe4?'
p1041
tp1042
Rp1043
ag54
(g58
S'\xc5^I\xa3\xda\x01\xe6?'
p1044
tp1045
Rp1046
ag54
(g58
S"_'U\x95po\xe6?"
p1047
tp1048
Rp1049
ag54
(g58
S'\x94\x1a\x03{\xdf]\xe5?'
p1050
tp1051
Rp1052
ag54
(g58
S'\xa1\x7f\x17\x1d)\xdc\xde?'
p1053
tp1054
Rp1055
ag54
(g58
S'\xdb\xadN`,\xf4\xe4?'
p1056
tp1057
Rp1058
ag54
(g58
S'\x87\x81\x13n7/\xe6?'
p1059
tp1060
Rp1061
ag54
(g58
S'\xfc\x94\xe9\x85\x13\x11\xe7?'
p1062
tp1063
Rp1064
ag54
(g58
S'\xc1\xec\xd4\xb7dl\xe5?'
p1065
tp1066
Rp1067
asg853
(lp1068
F0.30491803278688523
aF0.4519867549668874
aF0.4926739926739927
aF0.5525040387722132
aF0.5521669341894061
aF0.28691275167785235
aF0.4659090909090909
aF0.5036496350364964
aF0.5872534142640364
aF0.5534290271132376
asg855
(lp1069
F0.8416289592760181
aF0.8557993730407524
aF0.890728476821192
aF0.912
aF0.9297297297297298
aF0.8221153846153846
aF0.8723404255319149
aF0.9049180327868852
aF0.9170616113744076
aF0.9302949061662198
asg857
(lp1070
I0
aI0
aF0.8790849673202614
aF0.9318801089918256
aI0
aI0
aI0
aF0.8789808917197452
aF0.9485294117647058
aI0
asg859
(lp1071
I0
aI0
aI0
aF0.9447513812154696
aI0
aI0
aI0
aI0
aF0.979746835443038
aI0
asg861
(lp1072
F0.8416289592760181
aI0
aF0.8848684210526315
aI0
aI0
aF0.7916666666666666
aI0
aF0.8846153846153846
aI0
aI0
asg863
(lp1073
F0.75
aF0.8323170731707317
aF0.890728476821192
aF0.9318801089918256
aF0.8981723237597912
aF0.7339055793991416
aF0.8318840579710145
aF0.8903225806451613
aF0.9148936170212766
aF0.8989637305699482
asg865
(lp1074
F0.744
aF0.8452012383900929
aF0.8539682539682539
aF0.921832884097035
aI0
aF0.7467248908296943
aF0.849112426035503
aF0.8518518518518519
aF0.9148936170212766
aI0
asg867
(lp1075
F0.8571428571428571
aF0.91
aF0.8877887788778878
aF0.9395604395604396
aF0.9197860962566845
aF0.8507462686567164
aF0.9140127388535032
aF0.887459807073955
aF0.9485294117647058
aF0.9204244031830239
asg869
(lp1076
F0.8157894736842105
aF0.8557993730407524
aF0.9180887372013652
aF0.9
aF0.9222520107238605
aF0.7880184331797235
aF0.8696969696969697
aF0.9169435215946844
aF0.9042056074766355
aF0.9228723404255319
asg871
(lp1077
F0.6739130434782609
aF0.7959183673469388
aF0.7620396600566572
aF0.8507462686567164
aF0.8775510204081632
aF0.684
aF0.8016759776536313
aF0.7645429362880887
aF0.841304347826087
aF0.8762626262626263
asg873
(lp1078
I0
aI0
aI0
aF0.8571428571428571
aF0.9052631578947369
aI0
aI0
aI0
aI0
aF0.910761154855643
asg875
(lp1079
F0.8340807174887892
aF0.875
aF0.8485804416403786
aF0.912
aF0.9173333333333333
aF0.8066037735849056
aF0.8830769230769231
aF0.8571428571428571
aF0.9325301204819277
aF0.917989417989418
asg877
(lp1080
F0.6458333333333334
aF0.7418478260869565
aF0.7663817663817664
aF0.8952879581151832
aF0.884318766066838
aF0.6218181818181818
aF0.7532808398950132
aF0.7645429362880887
aF0.8958333333333334
aF0.8852040816326531
asg879
(lp1081
I0
aF0.9222972972972973
aF0.8996655518394648
aF0.926829268292683
aF0.9247311827956989
aI0
aF0.9288025889967637
aF0.9078947368421053
aF0.9439024390243902
aF0.9253333333333333
asg881
(lp1082
I0
aI0
aF0.8621794871794872
aI0
aI0
aI0
aI0
aF0.8679245283018868
aI0
aI0
asg883
(lp1083
I0
aF0.875
aF0.8819672131147541
aF0.9293478260869565
aF0.9028871391076115
aI0
aF0.8858024691358025
aF0.8932038834951457
aF0.9393203883495146
aF0.9012987012987013
asg885
(lp1084
F0.5794392523364486
aF0.7398373983739838
aF0.8485804416403786
aF0.8791773778920309
aF0.8935064935064935
aF0.5796610169491525
aF0.7473958333333334
aF0.8518518518518519
aF0.841304347826087
aF0.8920308483290489
asg887
(lp1085
F0.8611111111111112
aF0.8921568627450981
aF0.890728476821192
aF0.9193548387096774
aF0.9347826086956522
aF0.8066037735849056
aF0.9053627760252366
aF0.8961038961038961
aF0.9555555555555556
aF0.9353099730458221
asg889
(lp1086
F0.7560975609756098
aF0.8863636363636364
aI0
aF0.9293478260869565
aF0.9476584022038568
aF0.7467248908296943
aF0.8885448916408669
aI0
aF0.9325301204819277
aF0.9506849315068493
asg891
(lp1087
F0.8899521531100478
aF0.9578947368421052
aF0.9212328767123288
aI0
aF0.8724489795918368
aF0.959866220735786
aF0.9169435215946844
aI0
asg893
(lp1088
I0
aF0.8980263157894737
aF0.8733766233766234
aF0.9395604395604396
aF0.9297297297297298
aI0
aF0.9111111111111111
aF0.8846153846153846
aF0.9416058394160584
aF0.9302949061662198
asg895
(lp1089
F0.788135593220339
aF0.8639240506329114
aF0.8819672131147541
aF0.9293478260869565
aF0.9197860962566845
aF0.7633928571428571
aF0.8803680981595092
aF0.887459807073955
aF0.9236276849642004
aF0.9204244031830239
asg897
(lp1090
F0.9346733668341709
aF0.9069767441860465
aF0.8705501618122977
aF0.9395604395604396
aF0.9555555555555556
aF0.9193548387096774
aF0.9082278481012658
aF0.8734177215189873
aF0.9626865671641791
aF0.9559228650137741
asg899
(lp1091
F0.8857142857142857
aF0.9285714285714286
aF0.9372822299651568
aF0.9553072625698324
aF0.9745042492917847
aF0.9
aF0.9288025889967637
aF0.9387755102040817
aF0.9462102689486552
aF0.9747191011235955
asg901
(lp1092
I0
aF0.9039735099337748
aF0.893687707641196
aF0.9023746701846965
aI0
aI0
aF0.9140127388535032
aF0.8961038961038961
aF0.9347826086956522
aI0
asg903
(lp1093
g54
(g58
S'\xf8\x0b\xb3\xd6\xd70\xe0?'
p1094
tp1095
Rp1096
ag54
(g58
S'\xda\xf4x\x8bV\x95\xe4?'
p1097
tp1098
Rp1099
ag54
(g58
S'yo\x8aB\xc9\x94\xe7?'
p1100
tp1101
Rp1102
ag54
(g58
S'\xc7\xc3\x11\xba\xb4\xa0\xe6?'
p1103
tp1104
Rp1105
ag54
(g58
S'\xa6\x1fG\x92\xbcH\xe3?'
p1106
tp1107
Rp1108
ag54
(g58
S'\xb6W\x855\x81\xbd\xdf?'
p1109
tp1110
Rp1111
ag54
(g58
S'<\xc5\x03\xef:\xc5\xe4?'
p1112
tp1113
Rp1114
ag54
(g58
S'2\xf9\xbeB\x86\xaf\xe7?'
p1115
tp1116
Rp1117
ag54
(g58
S'\xb9&:\xaaM\xea\xe5?'
p1118
tp1119
Rp1120
ag54
(g58
S'\x99*ZRWM\xe3?'
p1121
tp1122
Rp1123
asg935
(lp1124
F0.7914893617021277
aF0.7668539325842697
aF0.7493036211699164
aF0.7066115702479339
aF0.68389662027833
aF0.8066037735849056
aF0.7735849056603774
aF0.7561643835616438
aF0.7543859649122807
aF0.6871287128712872
asg937
(lp1125
F0.8773584905660378
aF0.9479166666666666
aF0.9087837837837838
aI0
aI0
aF0.855
aF0.9503311258278145
aF0.9078947368421053
aI0
aI0
asg939
(lp1126
I0
aI0
aF0.8762214983713354
aI0
aI0
aI0
aI0
aF0.8817891373801917
aI0
aI0
assS'NB_TunedSmote'
p1127
(dp1128
g819
(lp1129
I0
aI0
aI0
aI0
aI0
aI0
aI0
aF0.9594594594594594
aI0
aI0
asg821
(lp1130
g54
(g58
S'\t\x91&I;\xe9\xe0?'
p1131
tp1132
Rp1133
ag54
(g58
S'I$Ck\x15L\xe3?'
p1134
tp1135
Rp1136
ag54
(g58
S'\x82p\xa3\x08\xfa#\xe5?'
p1137
tp1138
Rp1139
ag54
(g58
S'\x9d1\x87\xcc\xc5\x80\xe6?'
p1140
tp1141
Rp1142
ag54
(g58
S'\x9c2\xb2\xc5\x86\xc4\xe4?'
p1143
tp1144
Rp1145
ag54
(g58
S'\xcb@\x84\xed\x9a\x8e\xdf?'
p1146
tp1147
Rp1148
ag54
(g58
S'\xee:4\x9dT\xbf\xe2?'
p1149
tp1150
Rp1151
ag54
(g58
S'jR\x959e\t\xe6?'
p1152
tp1153
Rp1154
ag54
(g58
S'\x0e\xb7\x83\xf2\x1c\t\xe6?'
p1155
tp1156
Rp1157
ag54
(g58
S'\xe6C\xa64\xbbl\xe5?'
p1158
tp1159
Rp1160
asg853
(lp1161
F0.3163097199341021
aF0.4098360655737705
aF0.4897959183673469
aF0.573268921095008
aF0.5610932475884244
aF0.2991735537190083
aF0.42363636363636364
aF0.5126353790613718
aF0.5493630573248408
aF0.5594855305466238
asg855
(lp1162
F0.8930232558139535
aF0.8587786259541985
aF0.8741721854304636
aF0.9270833333333334
aF0.9281914893617021
aF0.861904761904762
aF0.8661710037174721
aF0.9073482428115016
aF0.9175531914893617
aF0.9405405405405406
asg857
(lp1163
F0.8347826086956521
aF0.9036144578313253
aF0.8712871287128713
aI0
aI0
aF0.8341013824884793
aI0
aF0.8711656441717791
aF0.9151193633952255
aI0
asg859
(lp1164
I0
aI0
aI0
aF0.9493333333333334
aI0
aI0
aI0
aI0
aI0
aI0
asg861
(lp1165
F0.8170212765957446
aF0.8823529411764706
aF0.8859060402684564
aI0
aI0
aI0
aI0
aF0.9161290322580645
aI0
aI0
asg863
(lp1166
F0.7836734693877551
aF0.8152173913043478
aF0.88
aF0.9246753246753247
aF0.8994845360824743
aF0.7541666666666667
aF0.7952218430034129
aF0.8930817610062893
aF0.9274193548387096
aF0.9086161879895561
asg865
(lp1167
F0.7804878048780488
aF0.8064516129032258
aF0.8198757763975155
aF0.9035532994923858
aF0.9184210526315789
aF0.7903930131004366
aF0.8006872852233677
aF0.8606060606060606
aF0.9126984126984127
aF0.8969072164948454
asg867
(lp1168
F0.8888888888888888
aF0.8490566037735849
aF0.88
aI0
aF0.9257294429708223
aF0.8379629629629629
aI0
aF0.9102564102564102
aF0.9224598930481284
aF0.9086161879895561
asg869
(lp1169
F0.803347280334728
aF0.8333333333333334
aF0.9295774647887324
aF0.9104859335038363
aI0
aF0.8418604651162791
aF0.8629629629629629
aF0.9161290322580645
aF0.905511811023622
aF0.925531914893617
asg871
(lp1170
F0.7529411764705882
aF0.7922535211267606
aF0.7353760445682451
aF0.8557692307692307
aF0.8725
aF0.7541666666666667
aF0.7766666666666666
aF0.7338501291989664
aF0.8539603960396039
aF0.8656716417910447
asg873
(lp1171
I0
aI0
aI0
aF0.898989898989899
aI0
aF0.8829268292682927
aI0
aI0
aI0
aI0
asg875
(lp1172
F0.8275862068965517
aF0.8653846153846154
aF0.8599348534201955
aF0.9128205128205128
aI0
aF0.7973568281938326
aF0.8597785977859779
aF0.8658536585365854
aF0.9007832898172323
aI0
asg877
(lp1173
F0.6784452296819788
aF0.6965944272445821
aF0.75
aF0.9012658227848102
aF0.87468671679198
aF0.6534296028880866
aF0.7125382262996942
aF0.7717391304347826
aF0.9031413612565445
aF0.8613861386138614
asg879
(lp1174
I0
aF0.9146341463414634
aF0.9041095890410958
aF0.9081632653061225
aF0.9232804232804233
aI0
aF0.8893129770992366
aF0.8847352024922118
aI0
aF0.9133858267716536
asg881
(lp1175
I0
aI0
aI0
aI0
aI0
aI0
aI0
aI0
aI0
aI0
asg883
(lp1176
I0
aF0.8823529411764706
aF0.8627450980392157
aF0.9270833333333334
aF0.9257294429708223
aI0
aF0.8566176470588235
aF0.9044585987261147
aF0.9504132231404959
aF0.8992248062015504
asg885
(lp1177
F0.6666666666666666
aF0.7601351351351351
aF0.8354430379746836
aF0.8725490196078431
aF0.8790931989924433
aF0.6373239436619719
aF0.758957654723127
aF0.8352941176470589
aF0.8756345177664975
aF0.8946015424164524
asg887
(lp1178
F0.8170212765957446
aF0.8211678832116789
aF0.8888888888888888
aF0.9128205128205128
aF0.920844327176781
aF0.7735042735042735
aF0.8321428571428572
aF0.9044585987261147
aF0.9175531914893617
aF0.9482288828337875
asg889
(lp1179
F0.7649402390438247
aI0
aI0
aF0.9442970822281167
aF0.9281914893617021
aF0.7448559670781894
aI0
aI0
aF0.9151193633952255
aI0
asg891
(lp1180
F0.8767123287671232
aF0.9036144578313253
aF0.9230769230769231
aI0
aI0
aF0.9209486166007905
aF0.9044585987261147
aI0
asg893
(lp1181
I0
aF0.8272058823529411
aF0.868421052631579
aF0.9343832020997376
aI0
aI0
aF0.8859315589353612
aF0.9102564102564102
aI0
aF0.9329758713136729
asg895
(lp1182
F0.7901234567901234
aF0.8241758241758241
aF0.8712871287128713
aF0.9295039164490861
aI0
aF0.7637130801687764
aF0.8661710037174721
aF0.8875
aF0.9324324324324325
aI0
asg897
(lp1183
F0.9056603773584906
aF0.8823529411764706
aF0.832807570977918
aF0.9544235924932976
aF0.953551912568306
aF0.9282051282051282
aF0.8996138996138996
aF0.8528528528528528
aF0.9452054794520548
aF0.9560439560439561
asg899
(lp1184
F0.9056603773584906
aF0.9221311475409836
aF0.946236559139785
aF0.9595687331536388
aF0.9748603351955307
aF0.9476439790575916
aF0.91015625
aF0.9403973509933775
aF0.9583333333333334
aF0.9693593314763231
asg901
(lp1185
I0
aI0
aF0.9103448275862069
aI0
aI0
aI0
aI0
aF0.9073482428115016
aF0.9007832898172323
aF0.8992248062015504
asg903
(lp1186
g54
(g58
S'\xaa\xfc#\x9bHl\xe1?'
p1187
tp1188
Rp1189
ag54
(g58
S'2OW\xe1X\xf1\xe3?'
p1190
tp1191
Rp1192
ag54
(g58
S'\tr>\xcb-r\xe5?'
p1193
tp1194
Rp1195
ag54
(g58
S'\xd4\xef\xec\x0e\x93\xa7\xe4?'
p1196
tp1197
Rp1198
ag54
(g58
S'*$\xd3$\xb2 \xde?'
p1199
tp1200
Rp1201
ag54
(g58
S'\x92\xbf\xf0\xf2\xdd[\xe0?'
p1202
tp1203
Rp1204
ag54
(g58
S'j\x10\xec\xdaH\x1d\xe1?'
p1205
tp1206
Rp1207
ag54
(g58
S'o\x02"gG\xe2\xe6?'
p1208
tp1209
Rp1210
ag54
(g58
S'\xe6\xe4&;\x9b\x94\xe4?'
p1211
tp1212
Rp1213
ag54
(g58
S'\xa27\x97\xa4\x13\x1b\xe1?'
p1214
tp1215
Rp1216
asg935
(lp1217
F0.8135593220338984
aF0.7401315789473685
aF0.7272727272727273
aF0.7191919191919192
aF0.6952191235059761
aF0.8264840182648402
aF0.7420382165605095
aF0.7634408602150538
aF0.6997971602434077
aF0.6877470355731226
asg937
(lp1218
F0.8727272727272727
aI0
aF0.8888888888888888
aI0
aI0
aF0.8960396039603961
aI0
aF0.9250814332247557
aF0.9375
aI0
asg939
(lp1219
I0
aF0.8823529411764706
aI0
aF0.898989898989899
aI0
aI0
aF0.8503649635036497
aI0
aF0.9102902374670184
aI0
asssI1000
(dp1220
S'NB_Naive'
p1221
(dp1222
S'toaru-majutsu-no-index'
p1223
(lp1224
I0
aI0
aI0
aI0
aI0
aI0
aI0
aI0
aI0
aI0
asS'fairy-tail'
p1225
(lp1226
I0
aI0
aI0
aF0.9826498422712934
aI0
aI0
aI0
aI0
aF0.9826498422712934
aI0
asS'others'
p1227
(lp1228
F0.6178686759956943
aF0.5957446808510638
aF0.5782608695652174
aF0.6592592592592592
aF0.704521556256572
aF0.6178686759956943
aF0.5957446808510638
aF0.5782608695652174
aF0.6592592592592592
aF0.704521556256572
asS'manga-production'
p1229
(lp1230
I0
aI0
aI0
aI0
aI0
aI0
aI0
aI0
aI0
aI0
asS'culture'
p1231
(lp1232
I0
aI0
aI0
aI0
aI0
aI0
aI0
aI0
aI0
aI0
asS'neon-genesis-evangelion'
p1233
(lp1234
I0
aI0
aI0
aI0
aI0
aI0
aI0
aI0
aI0
aI0
asS'pokemon'
p1235
(lp1236
I0
aI0
aI0
aI0
aI0
aI0
aI0
aI0
aI0
aI0
asS'japanese-language'
p1237
(lp1238
I0
aI0
aI0
aI0
aI0
aI0
aI0
aI0
aI0
aI0
asS'fullmetal-alchemist'
p1239
(lp1240
F0.9630872483221476
aF0.9427609427609428
aF0.948306595365419
aF0.9857594936708861
aF0.9852941176470589
aF0.9630872483221476
aF0.9427609427609428
aF0.948306595365419
aF0.9857594936708861
aF0.9852941176470589
asS'fate-stay-night'
p1241
(lp1242
I0
aI0
aI0
aI0
aI0
aI0
aI0
aI0
aI0
aI0
asS'tropes'
p1243
(lp1244
I0
aI0
aI0
aI0
aI0
aI0
aI0
aI0
aI0
aI0
asS'one-piece'
p1245
(lp1246
F0.9582637729549248
aF0.9540034071550255
aF0.8956228956228957
aF0.9599383667180277
aF0.9682080924855492
aF0.9582637729549248
aF0.9540034071550255
aF0.8956228956228957
aF0.9599383667180277
aF0.9682080924855492
asS'music'
p1247
(lp1248
I0
aI0
aI0
aI0
aI0
aI0
aI0
aI0
aI0
aI0
asS'sword-art-online'
p1249
(lp1250
I0
aI0
aF0.987012987012987
aI0
aI0
aI0
aI0
aF0.987012987012987
aI0
aI0
asS'naruto'
p1251
(lp1252
F0.9303079416531604
aF0.9475465313028765
aF0.9333333333333333
aF0.9734375
aF0.9896602658788775
aF0.9303079416531604
aF0.9475465313028765
aF0.9333333333333333
aF0.9734375
aF0.9896602658788775
asS'shingeki-no-kyojin'
p1253
(lp1254
I0
aI0
aI0
aI0
aI0
aI0
aI0
aI0
aI0
aI0
asS'resources'
p1255
(lp1256
I0
aI0
aI0
aI0
aI0
aI0
aI0
aI0
aI0
aI0
asS'monogatari-series'
p1257
(lp1258
I0
aI0
aI0
aI0
aI0
aI0
aI0
aI0
aI0
aI0
asS'anime-production'
p1259
(lp1260
I0
aI0
aI0
aI0
aI0
aI0
aI0
aI0
aI0
aI0
asS'anime-history'
p1261
(lp1262
I0
aI0
aI0
aI0
aI0
aI0
aI0
aI0
aI0
aI0
asS'bleach'
p1263
(lp1264
I0
aF0.9655172413793104
aI0
aF0.9952076677316294
aI0
aI0
aF0.9655172413793104
aI0
aF0.9952076677316294
aI0
asS'from-the-new-world'
p1265
(lp1266
I0
aI0
aI0
aI0
aI0
aI0
aI0
aI0
asS'madoka-magica'
p1267
(lp1268
F0.9948006932409013
aI0
aI0
aI0
aI0
aF0.9948006932409013
aI0
aI0
aI0
aI0
asS'dragon-ball'
p1269
(lp1270
I0
aI0
aI0
aI0
aI0
aI0
aI0
aI0
aI0
aI0
asS'mean_weighted'
p1271
(lp1272
g54
(g58
S'>\xf1N\x03O\xfd\xe0?'
p1273
tp1274
Rp1275
ag54
(g58
S'\xfbY0\xbd<\xc1\xe2?'
p1276
tp1277
Rp1278
ag54
(g58
S'i\xf2\x1e\x94\xf4M\xe2?'
p1279
tp1280
Rp1281
ag54
(g58
S'\xf4\x0e\x07\xd5\x16\x0f\xe4?'
p1282
tp1283
Rp1284
ag54
(g58
S'\xf6F{^\xe7\xfa\xe5?'
p1285
tp1286
Rp1287
ag54
(g58
S'>\xf1N\x03O\xfd\xe0?'
p1288
tp1289
Rp1290
ag54
(g58
S'\xfbY0\xbd<\xc1\xe2?'
p1291
tp1292
Rp1293
ag54
(g58
S'i\xf2\x1e\x94\xf4M\xe2?'
p1294
tp1295
Rp1296
ag54
(g58
S'\xf4\x0e\x07\xd5\x16\x0f\xe4?'
p1297
tp1298
Rp1299
ag54
(g58
S'\xf6F{^\xe7\xfa\xe5?'
p1300
tp1301
Rp1302
asS'death-note'
p1303
(lp1304
F0.9845626072041166
aF0.9824561403508771
aF0.9743589743589743
aI0
aF0.9896602658788775
aF0.9845626072041166
aF0.9824561403508771
aF0.9743589743589743
aI0
aF0.9896602658788775
asS'code-geass'
p1305
(lp1306
I0
aI0
aI0
aI0
aI0
aI0
aI0
aI0
aI0
aI0
asS'hunter-x-hunter'
p1307
(lp1308
I0
aI0
aI0
aI0
aI0
aI0
aI0
aI0
aI0
aI0
asS'identification-request'
p1309
(lp1310
F0.9067930489731437
aF0.8860759493670886
aF0.8793388429752066
aF0.9002890173410405
aF0.8792650918635171
aF0.9067930489731437
aF0.8860759493670886
aF0.8793388429752066
aF0.9002890173410405
aF0.8792650918635171
asS'terminology'
p1311
(lp1312
I0
aI0
aI0
aI0
aI0
aI0
aI0
aI0
aI0
aI0
asS'mean'
p1313
(lp1314
g54
(g58
S'M\x00\xaf\r|\r\xcc?'
p1315
tp1316
Rp1317
ag54
(g58
S'\xf8\x0f\x08KN\xb1\xcb?'
p1318
tp1319
Rp1320
ag54
(g58
S'|\x80\xefQQY\xcb?'
p1321
tp1322
Rp1323
ag54
(g58
S'\x95\xb9M;r\x7f\xcc?'
p1324
tp1325
Rp1326
ag54
(g58
S'\nhVX\x028\xc9?'
p1327
tp1328
Rp1329
ag54
(g58
S'M\x00\xaf\r|\r\xcc?'
p1330
tp1331
Rp1332
ag54
(g58
S'\xf8\x0f\x08KN\xb1\xcb?'
p1333
tp1334
Rp1335
ag54
(g58
S'|\x80\xefQQY\xcb?'
p1336
tp1337
Rp1338
ag54
(g58
S'\x95\xb9M;r\x7f\xcc?'
p1339
tp1340
Rp1341
ag54
(g58
S'\nhVX\x028\xc9?'
p1342
tp1343
Rp1344
assS'NB_Smote'
p1345
(dp1346
g1223
(lp1347
I0
aF0.9856887298747764
aF0.991652754590985
aF0.9935483870967742
aI0
aI0
aF0.9857904085257548
aF0.988313856427379
aI0
aI0
asg1225
(lp1348
F0.9793233082706767
aF0.9839285714285714
aF0.9705882352941176
aF0.9840255591054313
aF0.9827856025039123
aF0.9794776119402985
aF0.9840425531914894
aF0.9689034369885434
aF0.9838709677419355
aF0.9813084112149533
asg1227
(lp1349
F0.6392638036809816
aF0.6904761904761905
aF0.7415730337078652
aF0.7403846153846154
aF0.7476190476190476
aF0.6441717791411042
aF0.6920199501246883
aF0.7427854454203262
aF0.7376058041112454
aF0.7455621301775148
asg1229
(lp1350
F0.9702048417132216
aF0.9804270462633452
aF0.9785831960461285
aF0.9887640449438202
aF0.9797191887675507
aF0.9686346863468634
aF0.9840425531914894
aF0.9785123966942149
aF0.9854604200323102
aF0.9797822706065319
asg1231
(lp1351
F0.9507299270072993
aF0.9532871972318339
aF0.9690048939641109
aI0
aI0
aF0.9493670886075949
aF0.9585492227979274
aF0.9704918032786886
aI0
aI0
asg1233
(lp1352
F0.9848771266540642
aI0
aF0.9867109634551495
aI0
aF0.9905362776025236
aF0.9849906191369606
aI0
aF0.9850249584026622
aI0
aF0.9905660377358491
asg1235
(lp1353
F0.9612546125461254
aF0.9734982332155477
aF0.9705882352941176
aF0.9903536977491961
aI0
aF0.963302752293578
aF0.9719789842381786
aF0.9752883031301482
aI0
aI0
asg1237
(lp1354
F0.9438405797101449
aF0.9323181049069373
aF0.9473684210526315
aF0.9716088328075709
aF0.9617151607963247
aF0.9493670886075949
aF0.9359190556492412
aF0.9487179487179487
aF0.9713375796178344
aF0.963302752293578
asg1239
(lp1355
F0.9472727272727273
aF0.9786856127886323
aF0.9737704918032787
aF0.9731437598736177
aF0.9797191887675507
aF0.9459459459459459
aF0.9823008849557522
aF0.9720853858784894
aF0.976
aF0.9813084112149533
asg1241
(lp1356
F0.9811676082862524
aF0.9874551971326165
aF0.9867109634551495
aF0.9935483870967742
aF0.988976377952756
aF0.9794776119402985
aF0.9857904085257548
aF0.9866666666666667
aF0.993485342019544
aF0.987460815047022
asg1243
(lp1357
F0.9076655052264808
aF0.9291736930860034
aF0.9383886255924171
aF0.9685534591194969
aF0.9500756429652042
aF0.9178321678321678
aF0.925
aF0.9367088607594937
aF0.9682539682539683
aF0.9431137724550899
asg1245
(lp1358
F0.9188712522045855
aF0.95
aF0.939873417721519
aF0.9476923076923077
aF0.9587786259541985
aF0.9146341463414634
aF0.9487179487179487
aF0.9411764705882353
aF0.9501557632398754
aF0.958904109589041
asg1247
(lp1359
F0.9830188679245283
aI0
aF0.9769736842105263
aF0.9640062597809077
aF0.9676425269645609
aF0.9831460674157303
aI0
aF0.9752883031301482
aF0.9636650868878357
aF0.967741935483871
asg1249
(lp1360
F0.9793233082706767
aF0.9804270462633452
aF0.9850746268656716
aF0.9903536977491961
aF0.9858712715855573
aF0.9794776119402985
aF0.980565371024735
aF0.9850249584026622
aF0.9886547811993517
aF0.984375
asg1251
(lp1361
F0.9489981785063752
aF0.95
aF0.954983922829582
aF0.9762282091917591
aF0.9843260188087775
aF0.9476534296028881
aF0.9568965517241379
aF0.9517684887459807
aF0.976
aF0.982839313572543
asg1253
(lp1362
F0.9867424242424242
aF0.9666666666666667
aF0.9801980198019802
aF0.9793322734499205
aF0.9827856025039123
aF0.9868421052631579
aF0.9668989547038328
aF0.9850249584026622
aF0.9775641025641025
aF0.9813084112149533
asg1255
(lp1363
I0
aI0
aF0.9753694581280788
aF0.9685534591194969
aF0.9827856025039123
aI0
aI0
aF0.9736842105263158
aF0.9636650868878357
aF0.982839313572543
asg1257
(lp1364
I0
aF0.9649737302977233
aF0.9690048939641109
aF0.9887640449438202
aF0.9781931464174455
aI0
aF0.9668989547038328
aF0.9689034369885434
aF0.9886547811993517
aF0.9752321981424149
asg1259
(lp1365
F0.8499184339314845
aF0.8988580750407831
aF0.9166666666666666
aF0.9153046062407132
aF0.9248895434462445
aF0.8454106280193237
aF0.8966074313408724
aF0.9107692307692308
aF0.9159159159159159
aF0.9347181008902077
asg1261
(lp1366
F0.9542124542124543
aF0.9483648881239243
aF0.9737704918032787
aF0.9731437598736177
aF0.9874213836477987
aF0.9615384615384616
aF0.9503424657534246
aF0.9736842105263158
aF0.976
aF0.987460815047022
asg1263
(lp1367
F0.9387387387387387
aF0.9700704225352113
aF0.9690048939641109
aF0.9840255591054313
aF0.9874213836477987
aF0.9442446043165468
aF0.9719789842381786
aF0.9704918032786886
aF0.9822866344605475
aF0.989010989010989
asg1265
(lp1368
F0.9811676082862524
aI0
aI0
aI0
aF0.9813084112149533
aI0
aI0
aI0
asg1267
(lp1369
F0.9811676082862524
aF0.9734982332155477
aF0.9818181818181818
aF0.9903536977491961
aF0.9921011058451816
aF0.9758364312267658
aF0.9736842105263158
aF0.9817578772802653
aF0.9902597402597403
aF0.9921259842519685
asg1269
(lp1370
F0.9666048237476809
aF0.9769503546099291
aF0.9850746268656716
aF0.9840255591054313
aF0.9874213836477987
aF0.974025974025974
aF0.977112676056338
aF0.9833887043189369
aF0.9838709677419355
aF0.984375
asg1271
(lp1371
g54
(g58
S'\x02\xfa\xe9;\x86P\xe9?'
p1372
tp1373
Rp1374
ag54
(g58
S'\x91\x87\xcc\x1b\x80\xdd\xea?'
p1375
tp1376
Rp1377
ag54
(g58
S'\xac\xc8\xa97j\xfa\xeb?'
p1378
tp1379
Rp1380
ag54
(g58
S'\xa0!\xbbC\xde@\xeb?'
p1381
tp1382
Rp1383
ag54
(g58
S'\xd6\x99M\xaf\xfbl\xeb?'
p1384
tp1385
Rp1386
ag54
(g58
S'l\x19H\x19Zd\xe9?'
p1387
tp1388
Rp1389
ag54
(g58
S'\x90\xce\xb6\xb7\xf0\xec\xea?'
p1390
tp1391
Rp1392
ag54
(g58
S'\xc2J|\xfev\xf8\xeb?'
p1393
tp1394
Rp1395
ag54
(g58
S'X6B\xd2\x07\x05\xeb?'
p1396
tp1397
Rp1398
ag54
(g58
S'\xed`\x15\x9btm\xeb?'
p1399
tp1400
Rp1401
asg1303
(lp1402
F0.9886148007590133
aF0.9839285714285714
aF0.9785831960461285
aF0.9919484702093397
aF0.9905362776025236
aF0.9905660377358491
aF0.9840425531914894
aF0.9817578772802653
aF0.9902597402597403
aF0.9905660377358491
asg1305
(lp1403
F0.9886148007590133
aF0.968365553602812
aF0.9867109634551495
aF0.9840255591054313
aF0.9766718506998445
aF0.9887005649717514
aF0.9702797202797203
aF0.9833887043189369
aF0.9822866344605475
aF0.9782608695652174
asg1307
(lp1404
I0
aF0.982174688057041
aF0.9883527454242929
aF0.9700787401574803
aF0.9843260188087775
aI0
aF0.9840425531914894
aF0.9899665551839465
aF0.9682539682539683
aF0.989010989010989
asg1309
(lp1405
F0.9421338155515371
aF0.8887096774193548
aF0.9027355623100304
aF0.8615384615384616
aF0.8734353268428373
aF0.9375
aF0.8894230769230769
aF0.9024390243902439
aF0.8579465541490858
aF0.875
asg1311
(lp1406
F0.9793233082706767
aF0.982174688057041
aI0
aF0.9840255591054313
aI0
aF0.9794776119402985
aF0.9823008849557522
aI0
aF0.9822866344605475
aI0
asg1313
(lp1407
g54
(g58
S'2V\xbb5\x94\x19\xea?'
p1408
tp1409
Rp1410
ag54
(g58
S'_\x94\xcf\xf4w=\xea?'
p1411
tp1412
Rp1413
ag54
(g58
S'}\x87\x19t\xb5\x99\xec?'
p1414
tp1415
Rp1416
ag54
(g58
S'\x1f\xd9\xe2\x93C\xa6\xeb?'
p1417
tp1418
Rp1419
ag54
(g58
S'\x1d\x85\x14L\xefm\xea?'
p1420
tp1421
Rp1422
ag54
(g58
S'\\\xb3\xfd\xc41\x1f\xea?'
p1423
tp1424
Rp1425
ag54
(g58
S'q\xa4\x1e\xe6\x90D\xea?'
p1426
tp1427
Rp1428
ag54
(g58
S'~\xe1(y\xb2\x97\xec?'
p1429
tp1430
Rp1431
ag54
(g58
S'L\xc0\xb1\xc1Hp\xe9?'
p1432
tp1433
Rp1434
ag54
(g58
S'O=J\xc3\x0en\xea?'
p1435
tp1436
Rp1437
assS'NB_TunedLearner'
p1438
(dp1439
g1223
(lp1440
F0.9853211009174312
aF0.9843205574912892
aF0.9921259842519685
aI0
aF0.9938556067588326
aF0.9872262773722628
aF0.9806338028169014
aF0.9868852459016394
aI0
aI0
asg1225
(lp1441
F0.9817184643510055
aF0.9843205574912892
aF0.9813084112149533
aF0.9853587115666179
aF0.984779299847793
aF0.9818511796733213
aF0.9858407079646018
aF0.9678456591639871
aF0.9853372434017595
aF0.984984984984985
asg1227
(lp1442
F0.6485507246376812
aF0.7097989949748744
aF0.7701711491442543
aF0.7709049255441008
aF0.7488425925925926
aF0.6525934861278649
aF0.7041719342604298
aF0.7581863979848866
aF0.7671232876712328
aF0.7548906789413119
asg1229
(lp1443
F0.9745916515426497
aF0.9775086505190311
aF0.987460815047022
aF0.9940915805022157
aF0.9832826747720365
aF0.9747747747747748
aF0.9754816112084063
aF0.9788617886178862
aF0.9940828402366864
aF0.9864661654135338
asg1231
(lp1444
F0.9658273381294964
aF0.9608843537414966
aF0.9813084112149533
aF0.9796215429403202
aI0
aF0.9660714285714286
aF0.9570446735395189
aF0.9725363489499192
aF0.9795918367346939
aI0
asg1233
(lp1445
F0.9835164835164835
aI0
aF0.9921259842519685
aI0
aF0.9892966360856269
aF0.9854280510018215
aI0
aF0.9836601307189542
aI0
aF0.9879518072289156
asg1235
(lp1446
F0.9623655913978495
aF0.9758203799654577
aF0.9782608695652174
aF0.997037037037037
aI0
aF0.964349376114082
aF0.9720767888307156
aF0.9741100323624595
aF0.9970326409495549
aI0
asg1237
(lp1447
F0.9538188277087034
aF0.9385382059800664
aF0.963302752293578
aF0.9614285714285714
aF0.9656716417910448
aF0.9575221238938053
aF0.931438127090301
aF0.9510268562401264
aF0.9641319942611191
aF0.9689807976366323
asg1239
(lp1448
F0.9623655913978495
aF0.9826086956521739
aF0.9813084112149533
aF0.9868035190615836
aF0.9817905918057663
aF0.9609236234458259
aF0.9840989399293286
aF0.9725363489499192
aF0.9853372434017595
aF0.984984984984985
asg1241
(lp1449
F0.9799270072992701
aF0.9912280701754386
aF0.989010989010989
aF0.9882525697503671
aF0.9832826747720365
aF0.980072463768116
aF0.9893428063943162
aF0.9901315789473685
aF0.9882352941176471
aF0.984984984984985
asg1243
(lp1450
F0.8994974874371859
aF0.9277504105090312
aF0.9347181008902077
aF0.9669540229885057
aF0.9571005917159763
aF0.9016666666666666
aF0.9206611570247933
aF0.9435736677115988
aF0.9669064748201439
aF0.9548762736535662
asg1245
(lp1451
F0.9070945945945946
aF0.947986577181208
aF0.9445277361319341
aF0.9505649717514124
aF0.9571005917159763
aF0.9077181208053692
aF0.9586919104991394
aF0.9391575663026521
aF0.9491525423728814
aF0.9548762736535662
asg1247
(lp1452
F0.9835164835164835
aF0.9741379310344828
aF0.9813084112149533
aF0.9853587115666179
aF0.975867269984917
aF0.9836363636363636
aF0.9737762237762237
aF0.9772727272727273
aF0.9853372434017595
aF0.9791044776119403
asg1249
(lp1453
F0.9799270072992701
aF0.9826086956521739
aF0.987460815047022
aF0.9911634756995582
aF0.9908116385911179
aF0.980072463768116
aF0.9754816112084063
aF0.9868852459016394
aF0.9911504424778761
aF0.9894419306184012
asg1251
(lp1454
F0.9421052631578948
aF0.9527824620573356
aF0.9559939301972686
aF0.9739507959479016
aF0.9832826747720365
aF0.9425087108013938
aF0.9521367521367521
aF0.9540412044374009
aF0.9753265602322206
aF0.9835082458770614
asg1253
(lp1455
F0.9853211009174312
aF0.9724612736660929
aF0.987460815047022
aF0.9810495626822158
aF0.9862804878048781
aF0.9854280510018215
aF0.9737762237762237
aF0.9804560260586319
aF0.9795918367346939
aF0.9864661654135338
asg1255
(lp1456
I0
aF0.9707903780068728
aF0.982839313572543
aF0.9897058823529412
aF0.9892966360856269
aI0
aF0.9686956521739131
aF0.9725363489499192
aF0.9896907216494846
aF0.9939393939393939
asg1257
(lp1457
F0.9763636363636363
aF0.9658119658119658
aF0.9722222222222222
aF0.9940915805022157
aF0.9743975903614458
aF0.9765342960288809
aF0.9653379549393414
aF0.9678456591639871
aF0.9940828402366864
aF0.9761904761904762
asg1259
(lp1458
F0.8550955414012739
aF0.9011164274322169
aF0.9156976744186046
aF0.9295580110497238
aF0.9363241678726484
aF0.8573692551505546
aF0.9071661237785016
aF0.9093655589123867
aF0.9256198347107438
aF0.9411764705882353
asg1261
(lp1459
I0
aF0.9543918918918919
aI0
aF0.9882525697503671
aI0
aI0
aF0.9554030874785592
aI0
aF0.9882352941176471
aI0
asg1263
(lp1460
F0.9589285714285715
aF0.9758203799654577
aF0.9767441860465116
aF0.9911634756995582
aF0.9892966360856269
aF0.9575221238938053
aF0.9771929824561404
aF0.9725363489499192
aF0.9896907216494846
aF0.9894419306184012
asg1265
(lp1461
I0
aF0.9809027777777778
aF0.987460815047022
aI0
aI0
aF0.9771929824561404
aI0
aI0
asg1267
(lp1462
F0.9799270072992701
aF0.9741379310344828
aF0.9797822706065319
aF0.9955621301775148
aF0.9923312883435583
aF0.980072463768116
aF0.9670138888888888
aF0.9836601307189542
aF0.9955555555555555
aF0.9909365558912386
asg1269
(lp1463
F0.9675675675675676
aF0.9775086505190311
aF0.973724884080371
aF0.9796215429403202
aF0.9832826747720365
aF0.9677996422182469
aF0.9789103690685413
aF0.9852700490998363
aF0.981021897810219
aF0.9835082458770614
asg1271
(lp1464
g54
(g58
S'K.\x12\xe8\xd2+\xe9?'
p1465
tp1466
Rp1467
ag54
(g58
S'_\xf5\xc2\x89M\x87\xeb?'
p1468
tp1469
Rp1470
ag54
(g58
S'\xcf\x1d\xbb\x12U_\xec?'
p1471
tp1472
Rp1473
ag54
(g58
S'\xfe\xe6\xdaKyZ\xec?'
p1474
tp1475
Rp1476
ag54
(g58
S'\xa0 4?S\x92\xeb?'
p1477
tp1478
Rp1479
ag54
(g58
S'\x8f\x92e\xd1\x9c=\xe9?'
p1480
tp1481
Rp1482
ag54
(g58
S'\xfd\xd39\xd8kw\xeb?'
p1483
tp1484
Rp1485
ag54
(g58
S'nW\xb9\xea_\xf9\xeb?'
p1486
tp1487
Rp1488
ag54
(g58
S'\xda\xea\xc5\r\x1f0\xec?'
p1489
tp1490
Rp1491
ag54
(g58
S'o-l\xbe`\xa2\xeb?'
p1492
tp1493
Rp1494
asg1303
(lp1495
F0.9728260869565217
aF0.9877622377622378
aF0.9767441860465116
aF0.9897058823529412
aF0.9923312883435583
aF0.9730215827338129
aF0.9840989399293286
aF0.9885057471264368
aF0.9926144756277696
aF0.9924357034795764
asg1305
(lp1496
F0.9926062846580407
aF0.9724612736660929
aF0.987460815047022
aF0.9926253687315634
aF0.9832826747720365
aF0.9926605504587156
aF0.9737762237762237
aF0.9885057471264368
aF0.9940828402366864
aF0.984984984984985
asg1307
(lp1497
I0
aF0.9809027777777778
aF0.987460815047022
aF0.9781976744186046
aF0.9877862595419847
aI0
aF0.9737762237762237
aF0.9836601307189542
aF0.9795918367346939
aF0.9894419306184012
asg1309
(lp1498
F0.9504424778761061
aF0.8954041204437401
aF0.9183673469387755
aF0.9106901217861976
aF0.887517146776406
aF0.9507908611599297
aF0.8954983922829582
aF0.91350531107739
aF0.9105691056910569
aF0.8900949796472184
asg1311
(lp1499
F0.9853211009174312
aF0.9758203799654577
aI0
aF0.9926253687315634
aI0
aF0.9854280510018215
aF0.9737762237762237
aI0
aI0
aI0
asg1313
(lp1500
g54
(g58
S'\x8d\x91\xccc\x990\xea?'
p1501
tp1502
Rp1503
ag54
(g58
S'\x91PAE\xa4\x8b\xed?'
p1504
tp1505
Rp1506
ag54
(g58
S'\xc1X\xa4\xf7K\xc3\xec?'
p1507
tp1508
Rp1509
ag54
(g58
S'\xe0\xc5\x927\x17\xdb\xeb?'
p1510
tp1511
Rp1512
ag54
(g58
S'S2\xe7_\xce\x82\xea?'
p1513
tp1514
Rp1515
ag54
(g58
S"=\xf5\xd1'\xd35\xea?"
p1516
tp1517
Rp1518
ag54
(g58
S'R\x91@\xdaw\x7f\xed?'
p1519
tp1520
Rp1521
ag54
(g58
S'\xb3\xcb\xffP$\x91\xeb?'
p1522
tp1523
Rp1524
ag54
(g58
S'!\x96\xc1X\xf3\xc1\xea?'
p1525
tp1526
Rp1527
ag54
(g58
S'NA\xc9\xa6\xefh\xe9?'
p1528
tp1529
Rp1530
assS'NB_TunedSmote'
p1531
(dp1532
g1223
(lp1533
I0
aF0.9857651245551602
aF0.9880341880341881
aI0
aI0
aI0
aF0.9855072463768116
aI0
aI0
aI0
asg1225
(lp1534
F0.9679245283018868
aF0.9857651245551602
aF0.9585406301824212
aF0.9802955665024631
aF0.9797507788161994
aF0.9679245283018868
aF0.9731663685152058
aF0.9700499168053245
aF0.9806138933764136
aF0.9843014128728415
asg1227
(lp1535
F0.64366373902133
aF0.6951066499372648
aF0.7353689567430025
aF0.7262773722627737
aF0.745260663507109
aF0.6380597014925373
aF0.6912325285895807
aF0.7370417193426043
aF0.7330917874396136
aF0.7446555819477435
asg1229
(lp1536
F0.9808795411089866
aF0.9822695035460993
aF0.9714285714285714
aF0.978688524590164
aI0
aF0.9624765478424016
aF0.974910394265233
aF0.9814814814814815
aF0.9837925445705025
aF0.9781591263650546
asg1231
(lp1537
F0.957089552238806
aF0.9568221070811744
aF0.9780033840947546
aI0
aI0
aF0.9517625231910947
aF0.9560632688927944
aF0.9732888146911519
aI0
aI0
asg1233
(lp1538
F0.9752851711026616
aI0
aF0.9914236706689536
aI0
aF0.9936808846761453
aF0.9865384615384616
aI0
aF0.9814814814814815
aI0
aI0
asg1235
(lp1539
F0.9588785046728971
aF0.9719298245614035
aF0.9747048903878583
aI0
aI0
aF0.9624765478424016
aF0.9784172661870504
aF0.9798319327731092
aF0.9918300653594772
aI0
asg1237
(lp1540
I0
aF0.9326599326599326
aF0.9649415692821369
aF0.9629032258064516
aI0
aF0.9378427787934186
aF0.9477351916376306
aF0.9495114006514658
aF0.9743178170144462
aF0.9631336405529954
asg1239
(lp1541
F0.9535315985130112
aF0.9753521126760564
aF0.9747048903878583
aF0.9754901960784313
aF0.9828125
aF0.9535315985130112
aF0.9611307420494699
aF0.9652317880794702
aF0.9774557165861514
aF0.9751166407465007
asg1241
(lp1542
F0.9827586206896551
aF0.9805309734513274
aF0.9863481228668942
aF0.9867768595041322
aF0.9812792511700468
aF0.9846449136276392
aF0.9890909090909091
aF0.9847972972972973
aF0.9902120717781403
aF0.9812206572769953
asg1243
(lp1543
F0.890625
aF0.9279731993299832
aF0.9233226837060703
aF0.9536741214057508
aF0.9487179487179487
aF0.9
aF0.912751677852349
aF0.9342948717948718
aF0.9529042386185244
aF0.9457013574660633
asg1245
(lp1544
F0.9310344827586207
aF0.9502572898799314
aF0.9248
aF0.9506369426751592
aF0.9544764795144158
aF0.9144385026737968
aF0.9543859649122807
aF0.9403225806451613
aF0.9454828660436138
aF0.954337899543379
asg1247
(lp1545
F0.9771428571428571
aI0
aF0.9780033840947546
aF0.9675850891410048
aF0.9676923076923077
aF0.9790076335877863
aI0
aF0.9814814814814815
aF0.9681020733652312
aF0.9781591263650546
asg1249
(lp1546
F0.9771428571428571
aF0.9770723104056437
aF0.9829931972789115
aF0.9900497512437811
aI0
aF0.9827586206896551
aF0.9784172661870504
aF0.9847972972972973
aF0.9869918699186991
aF0.9858490566037735
asg1251
(lp1547
F0.9430147058823529
aF0.9486301369863014
aF0.9413680781758957
aF0.9660194174757282
aF0.9812792511700468
aF0.9412844036697248
aF0.9411764705882353
aF0.9418416801292407
aF0.9696485623003195
aF0.9843014128728415
asg1253
(lp1548
F0.9846449136276392
aF0.9719298245614035
aF0.9796610169491525
aF0.9802955665024631
aF0.9858934169278997
aF0.9922630560928434
aF0.9714285714285714
aF0.9798319327731092
aF0.9696485623003195
aF0.9796875
asg1255
(lp1549
I0
aI0
aI0
aF0.9598070739549839
aI0
aI0
aF0.9714285714285714
aF0.9636363636363636
aF0.9574132492113565
aF0.9781591263650546
asg1257
(lp1550
I0
aF0.9702276707530648
aF0.9681742043551089
aF0.9819078947368421
aF0.9767080745341615
aI0
aF0.9577464788732394
aF0.9716666666666667
aF0.9902120717781403
aF0.9720930232558139
asg1259
(lp1551
F0.840983606557377
aF0.8878205128205128
aF0.903125
aF0.9170506912442397
aF0.9263622974963182
aF0.8355048859934854
aF0.9158249158249159
aF0.9095163806552262
aF0.921092564491654
aF0.9330357142857143
asg1261
(lp1552
F0.9588785046728971
aF0.9736379613356766
aF0.9681742043551089
aF0.9754901960784313
aI0
aF0.9679245283018868
aF0.9628318584070796
aI0
aF0.9758842443729904
aF0.9843014128728415
asg1263
(lp1553
F0.9276672694394213
aF0.9668411867364747
aF0.9649415692821369
aF0.9819078947368421
aF0.9858934169278997
aF0.9482439926062847
aF0.9594356261022927
aF0.9716666666666667
aF0.9790322580645161
aF0.990521327014218
asg1265
(lp1554
F0.9827586206896551
aI0
aI0
aI0
aI0
aI0
aI0
aI0
asg1267
(lp1555
F0.9808795411089866
aF0.9702276707530648
aF0.9813242784380306
aF0.9884105960264901
aF0.9936808846761453
aF0.9771428571428571
aF0.9662522202486679
aF0.9765494137353434
aF0.9934533551554828
aF0.993660855784469
asg1269
(lp1556
F0.9715909090909091
aF0.9719298245614035
aF0.9780033840947546
aF0.9867768595041322
aF0.9858934169278997
aF0.9606741573033708
aF0.974910394265233
aF0.9831365935919055
aF0.9837925445705025
aF0.9827586206896551
asg1271
(lp1557
g54
(g58
S'\xc3u\xfdI\xd5\x17\xe9?'
p1558
tp1559
Rp1560
ag54
(g58
S'5\xeb^\x0b\\\xa8\xea?'
p1561
tp1562
Rp1563
ag54
(g58
S'R\xac@dbk\xeb?'
p1564
tp1565
Rp1566
ag54
(g58
S'\x10\xd9@\x91\x0e\xd1\xea?'
p1567
tp1568
Rp1569
ag54
(g58
S'\x98Cd6\xcbl\xea?'
p1570
tp1571
Rp1572
ag54
(g58
S'\xb3\xfa\xca>Y\xed\xe8?'
p1573
tp1574
Rp1575
ag54
(g58
S'\x19\x91\x19\x13&\xe0\xea?'
p1576
tp1577
Rp1578
ag54
(g58
S'U \x02\xbbm`\xeb?'
p1579
tp1580
Rp1581
ag54
(g58
S'\xe6~V\x97y \xeb?'
p1582
tp1583
Rp1584
ag54
(g58
S'5\xca\x87X`F\xeb?'
p1585
tp1586
Rp1587
asg1303
(lp1588
F0.9808795411089866
aF0.9875222816399287
aF0.9863481228668942
aF0.9851485148514851
aF0.9843505477308294
aF0.9865384615384616
aF0.9837251356238698
aF0.9732888146911519
aF0.9869918699186991
aF0.9858490566037735
asg1305
(lp1589
F0.9922630560928434
aF0.9753521126760564
aF0.9796610169491525
aF0.9867768595041322
aF0.9828125
aF0.9865384615384616
aF0.9714285714285714
aF0.9914965986394558
aF0.988599348534202
aF0.9827586206896551
asg1307
(lp1590
F0.9752851711026616
aF0.9770723104056437
aF0.9863481228668942
aF0.9598070739549839
aF0.9843505477308294
aI0
aF0.9819494584837545
aF0.988135593220339
aF0.9696485623003195
aF0.9874015748031496
asg1309
(lp1591
F0.9327272727272727
aF0.8864
aF0.8989113530326595
aF0.8528571428571429
aF0.8736111111111111
aF0.9293478260869565
aF0.8802588996763754
aF0.8969230769230769
aF0.8646723646723646
aF0.8769230769230769
asg1311
(lp1592
F0.9752851711026616
aI0
aI0
aF0.9851485148514851
aI0
aF0.9846449136276392
aF0.9801801801801802
aI0
aF0.9790322580645161
aI0
asg1313
(lp1593
g54
(g58
S' Y\xd8\x01\xb0\x16\xea?'
p1594
tp1595
Rp1596
ag54
(g58
S',\xdcZ\x1f-+\xe9?'
p1597
tp1598
Rp1599
ag54
(g58
S'\xa7\x8c\xee\x9d\xf7p\xeb?'
p1600
tp1601
Rp1602
ag54
(g58
S'\x97\xc9\xfcfd[\xe9?'
p1603
tp1604
Rp1605
ag54
(g58
S'\xaf\xda\xa2K\x0b\xd1\xe4?'
p1606
tp1607
Rp1608
ag54
(g58
S'\x81\xda\x86>\x07\xf9\xe8?'
p1609
tp1610
Rp1611
ag54
(g58
S'\x07\xc2\x82\x88]G\xeb?'
p1612
tp1613
Rp1614
ag54
(g58
S'\xdc\xbeU\xcf\x87b\xea?'
p1615
tp1616
Rp1617
ag54
(g58
S'@9\xb5w\x84\x7f\xea?'
p1618
tp1619
Rp1620
ag54
(g58
S'\x00\xb5\xf2MJH\xe9?'
p1621
tp1622
Rp1623
asss.