(dp0
S'NB_TunedSmote_100_yes'
p1
(lp2
F0.4402907580477674
aF0.4381294964028777
aF0.4465811965811966
asS'NB_TunedLearner_1000_yes'
p3
(lp4
F0.758383490971625
aF0.7354497354497355
aF0.7517482517482517
asS'NB_TunedSmote_1000_yes'
p5
(lp6
F0.5923217550274223
aF0.5938349954669083
aF0.5930851063829787
asS'NB_Smote_100_yes'
p7
(lp8
F0.45735567970204843
aF0.45783132530120485
aF0.46864438603079234
asS'NB_TunedLearner_700_yes'
p9
(lp10
F0.7352415026833631
aF0.6844036697247706
aF0.7119565217391304
asS'NB_TunedSmote_700_yes'
p11
(lp12
F0.5578460244005048
aF0.5569296375266524
aF0.5556036347901342
asS'NB_Smote_700_yes'
p13
(lp14
F0.567437800087298
aF0.5714285714285714
aF0.5692982456140351
asS'NB_Naive_100_yes'
p15
(lp16
F0.5246589716684156
aF0.5320715036803365
aF0.5266457680250783
asS'NB_Naive_400_yes'
p17
(lp18
F0.6888273314866112
aF0.6989051094890512
aF0.6660359508041628
asS'NB_Naive_700_yes'
p19
(lp20
F0.6967741935483872
aF0.6924493554327809
aF0.7163375224416517
asS'NB_TunedLearner_100_yes'
p21
(lp22
F0.555327868852459
aF0.5467775467775468
aF0.5100529100529101
asS'NB_Naive_1000_yes'
p23
(lp24
F0.7215756490599821
aF0.7333923826395039
aF0.7395104895104895
asS'NB_Smote_1000_yes'
p25
(lp26
F0.6043755697356427
aF0.5844214317874832
aF0.5778167470407716
asS'NB_TunedSmote_400_yes'
p27
(lp28
F0.5585036972596781
aF0.5266990291262136
aF0.5501672240802675
asS'NB_Smote_400_yes'
p29
(lp30
F0.5378221113881961
aF0.5468227424749165
aF0.5574193548387096
asS'NB_TunedLearner_400_yes'
p31
(lp32
F0.678373382624769
aF0.6990825688073395
aF0.6895273401297497
as.