(dp0
S'NB_TunedSmote_100_yes'
p1
(lp2
F0.038293216630196934
aF0.035606731620903456
aF0.038192576654115115
asS'NB_TunedLearner_1000_yes'
p3
(lp4
F0.07038123167155425
aF0.0779220779220779
aF0.0742322220397438
asS'NB_TunedSmote_1000_yes'
p5
(lp6
F0.08015959376133479
aF0.0801457194899818
aF0.07786741494212557
asS'NB_Smote_100_yes'
p7
(lp8
F0.03422818791946309
aF0.03420843277645187
aF0.035978667515720764
asS'NB_TunedLearner_700_yes'
p9
(lp10
F0.06603636363636363
aF0.06745213549337262
aF0.0673992673992674
asS'NB_TunedSmote_700_yes'
p11
(lp12
F0.06771463119709795
aF0.07742161499386935
aF0.06662682999701225
asS'NB_Smote_700_yes'
p13
(lp14
F0.0692744102717229
aF0.06720430107526881
aF0.06343952558267825
asS'NB_Naive_100_yes'
p15
(lp16
I0
aI0
aI0
asS'NB_Naive_400_yes'
p17
(lp18
I0
aI0
aI0
asS'NB_Naive_700_yes'
p19
(lp20
I0
aI0
aI0
asS'NB_TunedLearner_100_yes'
p21
(lp22
F0.03779858255315426
aF0.03391529529696768
aF0.03703062813635577
asS'NB_Naive_1000_yes'
p23
(lp24
F0.007999999999999998
aI0
aI0
asS'NB_Smote_1000_yes'
p25
(lp26
F0.07385716609728323
aF0.07323674574112403
aF0.07618405528400474
asS'NB_TunedSmote_400_yes'
p27
(lp28
F0.05814704742214756
aF0.0583804143126177
aF0.05352279455298994
asS'NB_Smote_400_yes'
p29
(lp30
F0.057316763885366474
aF0.05406051907666547
aF0.053313587560162905
asS'NB_TunedLearner_400_yes'
p31
(lp32
F0.05417825613738058
aF0.05637755102040816
aF0.05652450668364099
as.