(dp0
S'NB_Naive_100_yes'
p1
(lp2
I0
aI0
aI0
aI0
aI0
aI0
aI0
aI0
aI0
aI0
aI0
aI0
aI0
aI0
aI0
asS'NB_Naive_400_yes'
p3
(lp4
F0.02777777777777778
aF0.03225806451612903
aF0.03218390804597702
aF0.045871559633027525
aF0.041379310344827586
aF0.0367816091954023
aF0.02320185614849188
aF0.05011389521640092
aF0.05034324942791762
aF0.03695150115473441
aF0.045662100456621
aF0.041379310344827586
aF0.03233256351039261
aF0.03233256351039261
aF0.03233256351039261
asS'NB_Naive_700_yes'
p5
(lp6
F0.11328976034858387
aF0.1310043668122271
aF0.15711252653927812
aF0.1535181236673774
aF0.0975609756097561
aF0.10989010989010989
aF0.1422413793103448
aF0.1091703056768559
aF0.1694915254237288
aF0.14592274678111591
aF0.12987012987012989
aF0.11279826464208244
aF0.1459227467811159
aF0.15086206896551727
aF0.15086206896551724
asS'NB_Naive_1000_yes'
p7
(lp8
F0.17758985200845667
aF0.11739130434782608
aF0.1459227467811159
aF0.13043478260869565
aF0.16204690831556504
aF0.15254237288135594
aF0.1729957805907173
aF0.11739130434782608
aF0.15384615384615383
aF0.15118790496760262
aF0.15450643776824033
aF0.15021459227467815
aF0.17721518987341772
aF0.17721518987341772
aF0.12526997840172785
as.