(dp0
S'NB_TunedSmote_100_yes'
p1
(lp2
F0.18739815317762085
aF0.19384264538198404
aF0.17205422314911367
asS'NB_TunedLearner_1000_yes'
p3
(lp4
F0.2735106781566129
aF0.2897271268057785
aF0.27711308375144733
asS'NB_TunedSmote_1000_yes'
p5
(lp6
F0.27756360832690824
aF0.293631100082713
aF0.290646326776395
asS'NB_Smote_100_yes'
p7
(lp8
F0.19690898683457356
aF0.16020431855119574
aF0.18483547925608013
asS'NB_TunedLearner_700_yes'
p9
(lp10
F0.2595255212077642
aF0.2668600435097897
aF0.26500732064421667
asS'NB_TunedSmote_700_yes'
p11
(lp12
F0.26715867158671586
aF0.2699478001491424
aF0.2753567296567682
asS'NB_Smote_700_yes'
p13
(lp14
F0.25536405205768553
aF0.266960029336267
aF0.2572141075881724
asS'NB_Naive_100_yes'
p15
(lp16
I0
aI0
aI0
asS'NB_Naive_400_yes'
p17
(lp18
F0.06649616368286446
aF0.07672634271099744
aF0.041775456919060046
asS'NB_Naive_700_yes'
p19
(lp20
F0.10579345088161207
aF0.08629441624365482
aF0.105
asS'NB_TunedLearner_100_yes'
p21
(lp22
F0.18749999999999997
aF0.18447389775493644
aF0.1847856154910097
asS'NB_Naive_1000_yes'
p23
(lp24
F0.1144278606965174
aF0.115
aF0.13366336633663367
asS'NB_Smote_1000_yes'
p25
(lp26
F0.28858520900321544
aF0.2722864602760164
aF0.27724297266076237
asS'NB_TunedSmote_400_yes'
p27
(lp28
F0.23016123932975027
aF0.24333561175666443
aF0.2375453645661498
asS'NB_Smote_400_yes'
p29
(lp30
F0.24661246612466123
aF0.24055666003976142
aF0.24395229982964223
asS'NB_TunedLearner_400_yes'
p31
(lp32
F0.25253585169639736
aF0.23694516971279375
aF0.24803014731072284
as.