(dp0
S'NB_TunedSmote_100_yes'
p1
(lp2
F0.4462676962676963
aF0.45222327341532637
aF0.46113905565471364
asS'NB_TunedLearner_1000_yes'
p3
(lp4
F0.804159445407279
aF0.7995810055865922
aF0.7968319559228649
asS'NB_TunedSmote_1000_yes'
p5
(lp6
F0.681299385425812
aF0.6864088397790056
aF0.687292817679558
asS'NB_Smote_100_yes'
p7
(lp8
F0.4581168831168832
aF0.44672328152539653
aF0.45531036672487696
asS'NB_TunedLearner_700_yes'
p9
(lp10
F0.768455167446885
aF0.7801618009145269
aF0.7742397137745974
asS'NB_TunedSmote_700_yes'
p11
(lp12
F0.6698194325021495
aF0.6628006872852233
aF0.6573009791400597
asS'NB_Smote_700_yes'
p13
(lp14
F0.6597148329431793
aF0.6569804169298801
aF0.6689880304678998
asS'NB_Naive_100_yes'
p15
(lp16
F0.11175785797438882
aF0.11716937354988399
aF0.10753945061367622
asS'NB_Naive_400_yes'
p17
(lp18
F0.6974595842956122
aF0.6971694455215199
aF0.6764124851837218
asS'NB_Naive_700_yes'
p19
(lp20
F0.7816173851086569
aF0.7663217980734927
aF0.7682882882882883
asS'NB_TunedLearner_100_yes'
p21
(lp22
F0.4591590140164331
aF0.45409674234945707
aF0.46254712342238974
asS'NB_Naive_1000_yes'
p23
(lp24
F0.798050139275766
aF0.7962707182320442
aF0.7953749124036439
asS'NB_Smote_1000_yes'
p25
(lp26
F0.6929203539823009
aF0.6752341537791332
aF0.6786339754816111
asS'NB_TunedSmote_400_yes'
p27
(lp28
F0.6143399241062513
aF0.6154156577885391
aF0.6150761828388132
asS'NB_Smote_400_yes'
p29
(lp30
F0.6073423782920989
aF0.599018645731109
aF0.6085081356596745
asS'NB_TunedLearner_400_yes'
p31
(lp32
F0.6972049689440993
aF0.697226502311248
aF0.6872556684910086
as.