(dp0
S'NB_TunedSmote_100_yes'
p1
(lp2
F0.050415853783756036
aF0.0497019901000101
aF0.051567871653297216
asS'NB_TunedLearner_1000_yes'
p3
(lp4
F0.1136102102730411
aF0.11087953313880784
aF0.11300147027935308
asS'NB_TunedSmote_1000_yes'
p5
(lp6
F0.11194340407823554
aF0.11424930983223613
aF0.11342964151952915
asS'NB_Smote_100_yes'
p7
(lp8
F0.05058605798889575
aF0.05100144538509188
aF0.05123203285420945
asS'NB_TunedLearner_700_yes'
p9
(lp10
F0.10274494853221501
aF0.0996008363429006
aF0.10122495489507169
asS'NB_TunedSmote_700_yes'
p11
(lp12
F0.10602701068332998
aF0.10341077607513594
aF0.1019036954087346
asS'NB_Smote_700_yes'
p13
(lp14
F0.09907686683118544
aF0.10066403618516023
aF0.10018587360594795
asS'NB_Naive_100_yes'
p15
(lp16
I0
aI0
aI0
asS'NB_Naive_400_yes'
p17
(lp18
I0
aI0
aI0
asS'NB_Naive_700_yes'
p19
(lp20
I0
aF0.0035149384885764497
aI0
asS'NB_TunedLearner_100_yes'
p21
(lp22
F0.051719625189760775
aF0.0505199033714946
aF0.051433608129828376
asS'NB_Naive_1000_yes'
p23
(lp24
F0.003508771929824561
aF0.0035149384885764497
aF0.010507880910683012
asS'NB_Smote_1000_yes'
p25
(lp26
F0.11047345767575323
aF0.108646998982706
aF0.11335861778339654
asS'NB_TunedSmote_400_yes'
p27
(lp28
F0.07816508223932397
aF0.08343989769820973
aF0.08308418568056648
asS'NB_Smote_400_yes'
p29
(lp30
F0.08482685913551213
aF0.08050912436742831
aF0.08081267530892276
asS'NB_TunedLearner_400_yes'
p31
(lp32
F0.08191714308089906
aF0.08279552967102156
aF0.08091685254980387
as.