(dp0
S'NB_TunedSmote_100_yes'
p1
(lp2
F0.1522824536376605
aF0.14898419864559823
aF0.16538244690847584
asS'NB_TunedLearner_1000_yes'
p3
(lp4
F0.5905707196029777
aF0.5929203539823008
aF0.573178199632578
asS'NB_TunedSmote_1000_yes'
p5
(lp6
F0.5702179176755447
aF0.5958254269449715
aF0.5974358974358974
asS'NB_Smote_100_yes'
p7
(lp8
F0.1553501599715606
aF0.15465411082940964
aF0.1606060606060606
asS'NB_TunedLearner_700_yes'
p9
(lp10
F0.5238623751387348
aF0.5286195286195285
aF0.5601436265709155
asS'NB_TunedSmote_700_yes'
p11
(lp12
F0.5211029825548676
aF0.5157096424702059
aF0.5218855218855218
asS'NB_Smote_700_yes'
p13
(lp14
F0.5037919826652221
aF0.4955567171981181
aF0.4891416752843847
asS'NB_Naive_100_yes'
p15
(lp16
I0
aI0
aI0
asS'NB_Naive_400_yes'
p17
(lp18
F0.044176706827309245
aF0.044176706827309245
aF0.03238866396761134
asS'NB_Naive_700_yes'
p19
(lp20
F0.44690966719492864
aF0.45984251968503936
aF0.45354330708661417
asS'NB_TunedLearner_100_yes'
p21
(lp22
F0.15588662790697674
aF0.16647398843930636
aF0.15758936926820138
asS'NB_Naive_1000_yes'
p23
(lp24
F0.45669291338582685
aF0.4672897196261682
aF0.4720496894409938
asS'NB_Smote_1000_yes'
p25
(lp26
F0.5709090909090909
aF0.5707405177603854
aF0.5207296849087895
asS'NB_TunedSmote_400_yes'
p27
(lp28
F0.3613053613053613
aF0.37327935222672065
aF0.3683152392440692
asS'NB_Smote_400_yes'
p29
(lp30
F0.34359925788497214
aF0.345166163141994
aF0.36491777603758807
asS'NB_TunedLearner_400_yes'
p31
(lp32
F0.3620553359683795
aF0.3723916532905297
aF0.3792250618301731
as.