(dp0
S'NB_TunedSmote_100_yes'
p1
(lp2
F0.426734216679657
aF0.4274540477121627
aF0.4264764169639319
asS'NB_TunedLearner_1000_yes'
p3
(lp4
F0.7882736156351791
aF0.7819548872180453
aF0.7798507462686568
asS'NB_TunedSmote_1000_yes'
p5
(lp6
F0.6873469387755103
aF0.7040673211781207
aF0.7264883520276101
asS'NB_Smote_100_yes'
p7
(lp8
F0.4159702878365831
aF0.4111979640065443
aF0.4102850754611515
asS'NB_TunedLearner_700_yes'
p9
(lp10
F0.7351509250243426
aF0.7361246348588121
aF0.7360233349538162
asS'NB_TunedSmote_700_yes'
p11
(lp12
F0.6720257234726688
aF0.689331122166943
aF0.6770889487870619
asS'NB_Smote_700_yes'
p13
(lp14
F0.677088948787062
aF0.6762472885032539
aF0.6920131291028447
asS'NB_Naive_100_yes'
p15
(lp16
F0.20885200553250344
aF0.2521915037086986
aF0.22510231923601637
asS'NB_Naive_400_yes'
p17
(lp18
F0.46053412462908005
aF0.45971563981042646
aF0.47658079625292743
asS'NB_Naive_700_yes'
p19
(lp20
F0.728515625
aF0.7259332023575639
aF0.729848558866634
asS'NB_TunedLearner_100_yes'
p21
(lp22
F0.41933057540428736
aF0.42645645068256105
aF0.4254826254826255
asS'NB_Naive_1000_yes'
p23
(lp24
F0.7585877862595419
aF0.7849512308406874
aF0.7815875998121184
asS'NB_Smote_1000_yes'
p25
(lp26
F0.7145674837982529
aF0.6866410115448048
aF0.7141242937853106
asS'NB_TunedSmote_400_yes'
p27
(lp28
F0.5704665704665705
aF0.5482233502538071
aF0.5726829268292684
asS'NB_Smote_400_yes'
p29
(lp30
F0.56875
aF0.5760502172863352
aF0.5555814495455604
asS'NB_TunedLearner_400_yes'
p31
(lp32
F0.5749877870053737
aF0.5805820494008315
aF0.5712897741073597
as.