(dp0
S'NB_TunedSmote_100_yes'
p1
(lp2
F0.2361520123404852
aF0.23664980326025858
aF0.24184543050249777
asS'NB_TunedLearner_1000_yes'
p3
(lp4
F0.4898172323759791
aF0.5017273452032952
aF0.4963427377220481
asS'NB_TunedSmote_1000_yes'
p5
(lp6
F0.5014844804318489
aF0.5032560562646523
aF0.4907260201377848
asS'NB_Smote_100_yes'
p7
(lp8
F0.23477542022595757
aF0.23275145469659184
aF0.23164484917472966
asS'NB_TunedLearner_700_yes'
p9
(lp10
F0.4590325765054295
aF0.4606385571533025
aF0.4647220144602344
asS'NB_TunedSmote_700_yes'
p11
(lp12
F0.45557191948944536
aF0.4726817042606517
aF0.45847665847665847
asS'NB_Smote_700_yes'
p13
(lp14
F0.44885126964933497
aF0.45148895292987506
aF0.4519047619047619
asS'NB_Naive_100_yes'
p15
(lp16
I0
aI0
aI0
asS'NB_Naive_400_yes'
p17
(lp18
F0.11090573012939
aF0.10223048327137546
aF0.10780669144981413
asS'NB_Naive_700_yes'
p19
(lp20
F0.1216589861751152
aF0.1262580054894785
aF0.10232558139534882
asS'NB_TunedLearner_100_yes'
p21
(lp22
F0.24452501812907904
aF0.23586660941748963
aF0.2394325419803127
asS'NB_Naive_1000_yes'
p23
(lp24
F0.21025195482189404
aF0.20297462817147854
aF0.20401046207497822
asS'NB_Smote_1000_yes'
p25
(lp26
F0.47249190938511326
aF0.49365449365449365
aF0.48445928589776516
asS'NB_TunedSmote_400_yes'
p27
(lp28
F0.42724745134383696
aF0.42969110189027204
aF0.432049160954857
asS'NB_Smote_400_yes'
p29
(lp30
F0.4170932561762742
aF0.4166480196912061
aF0.42429863204266177
asS'NB_TunedLearner_400_yes'
p31
(lp32
F0.42790697674418604
aF0.4343100189035916
aF0.42909423604757546
as.