(dp0
S'Linear_SVM_Naive_700_Macro_F'
p1
(lp2
F0.37822989769783594
aF0.37393875580383495
asS'Linear_SVM_Naive_100_Macro_F'
p3
(lp4
F0.2513359091773386
aF0.24850072896573894
asS'Linear_SVM_Naive_1000_Macro_F'
p5
(lp6
F0.3843860189727837
aF0.3747615202919262
asS'Linear_SVM_Naive_400_Macro_F'
p7
(lp8
F0.38248310167597294
aF0.37859093332247157
as.