(dp0
S'Linear_SVM_Naive_700_Macro_F'
p1
(lp2
F0.42720836910728366
aF0.422987574307804
asS'Linear_SVM_Naive_100_Macro_F'
p3
(lp4
F0.2668168519753812
aF0.2766650949595204
asS'Linear_SVM_Naive_1000_Macro_F'
p5
(lp6
F0.43114739091081206
aF0.4230946974011039
asS'Linear_SVM_Naive_400_Macro_F'
p7
(lp8
F0.4068563819874207
aF0.4041218590495711
as.