(dp0
S'Linear_SVM_Naive_700_Macro_F'
p1
(lp2
F0.40873175067966994
aF0.4161753950623362
asS'Linear_SVM_Naive_100_Macro_F'
p3
(lp4
F0.25186409851293307
aF0.234592342119721
asS'Linear_SVM_Naive_1000_Macro_F'
p5
(lp6
F0.42025578741900815
aF0.42679699888504896
asS'Linear_SVM_Naive_400_Macro_F'
p7
(lp8
F0.3719847234327726
aF0.3782113255019246
as.