(dp0
S'Linear_SVM_Naive_700_yes'
p1
(lp2
F0.7076167076167076
aF0.6719576719576719
aF0.7182044887780549
aF0.6384039900249378
aF0.7037974683544304
aF0.6921119592875319
aF0.6927083333333334
aF0.6975609756097562
aF0.6614583333333334
aF0.7363184079601989
asS'Linear_SVM_Naive_100_yes'
p3
(lp4
F0.4169184290030211
aF0.4233128834355828
aF0.4049844236760124
aF0.38749999999999996
aF0.4121212121212121
aF0.39999999999999997
aF0.41875
aF0.4152046783625731
aF0.4113924050632911
aF0.3682539682539683
asS'Linear_SVM_Naive_400_yes'
p5
(lp6
F0.6581632653061225
aF0.6616915422885572
aF0.631578947368421
aF0.6487935656836461
aF0.6510416666666667
aF0.6649214659685864
aF0.6615776081424937
aF0.6379746835443039
aF0.6979166666666666
aF0.6157894736842106
asS'Linear_SVM_Naive_1000_yes'
p7
(lp8
F0.7044334975369458
aF0.6917293233082707
aF0.6940874035989717
aF0.7121212121212122
aF0.6882793017456358
aF0.6984924623115577
aF0.6736842105263159
aF0.746928746928747
aF0.6909975669099757
aF0.7000000000000001
as.