(dp0
S'Linear_SVM_Naive_700_yes'
p1
(lp2
F0.5224171539961012
aF0.46638655462184875
aF0.4728033472803347
aF0.46443514644351463
aF0.4979423868312758
aF0.4821802935010482
aF0.449678800856531
aF0.49079754601226994
aF0.48888888888888893
aF0.48953974895397484
asS'Linear_SVM_Naive_100_yes'
p3
(lp4
I0
aI0
aI0
aI0
aI0
aI0
aI0
aI0
aI0
aI0
asS'Linear_SVM_Naive_400_yes'
p5
(lp6
F0.2561576354679803
aF0.22110552763819097
aF0.25252525252525254
aF0.20512820512820515
aF0.23017902813299232
aF0.24040920716112535
aF0.22222222222222224
aF0.25563909774436094
aF0.21025641025641026
aF0.23737373737373735
asS'Linear_SVM_Naive_1000_yes'
p7
(lp8
F0.5719844357976653
aF0.49900199600798395
aF0.5295315682281059
aF0.5670498084291189
aF0.5238095238095238
aF0.5620155038759691
aF0.5436507936507936
aF0.547945205479452
aF0.5305343511450382
aF0.5343811394891945
as.