(dp0
S'Linear_SVM_Naive_700_yes'
p1
(lp2
F0.6383647798742139
aF0.6616541353383459
aF0.706766917293233
aF0.6583850931677019
aF0.6744868035190615
aF0.665680473372781
aF0.7142857142857142
aF0.667687595712098
aF0.653250773993808
aF0.6552795031055901
asS'Linear_SVM_Naive_100_yes'
p3
(lp4
F0.05612244897959184
aF0.04675324675324675
aF0.05499999999999999
aF0.0663265306122449
aF0.031578947368421054
aF0.046511627906976744
aF0.07633587786259542
aF0.020512820512820513
aF0.05714285714285714
aF0.041343669250646
asS'Linear_SVM_Naive_400_yes'
p5
(lp6
F0.5829307568438004
aF0.6203703703703703
aF0.6015748031496063
aF0.6158730158730159
aF0.5700483091787439
aF0.5865834633385336
aF0.6095238095238096
aF0.6450617283950618
aF0.5823627287853577
aF0.5736925515055469
asS'Linear_SVM_Naive_1000_yes'
p7
(lp8
F0.6886227544910178
aF0.7034277198211625
aF0.6707317073170732
aF0.7366863905325443
aF0.7082728592162554
aF0.7088989441930618
aF0.7186147186147186
aF0.6780715396578538
aF0.6798179059180576
aF0.6942392909896603
as.