(dp0
S'Linear_SVM_Naive_700_Macro_F'
p1
(lp2
F0.5162537091385588
aF0.5036675493982362
asS'Linear_SVM_Naive_100_Macro_F'
p3
(lp4
F0.32520546470406386
aF0.3274203201550405
asS'Linear_SVM_Naive_1000_Macro_F'
p5
(lp6
F0.5066469411613054
aF0.5196268580637156
asS'Linear_SVM_Naive_400_Macro_F'
p7
(lp8
F0.49679147469346624
aF0.49366463530983107
as.