(dp0
S'LinearSVM_SVM_Naive_700_Macro_F'
p1
(lp2
F0.5179668197471158
aF0.5158925642645377
aF0.515511256089464
aF0.524361239028694
aF0.5157427805441109
aF0.5163953450419569
aF0.5150102312414185
aF0.5270926976228432
aF0.5095655103781526
aF0.5185148580030883
asS'LinearSVM_SVM_Naive_1900_Macro_F'
p3
(lp4
F0.5146277590254463
aF0.513335367445018
aF0.5201508893432869
aF0.5249799517113026
aF0.5186724364980858
aF0.5202961008114771
aF0.5108826977053905
aF0.5247961778073649
aF0.5165280190992111
aF0.5208613639836958
asS'LinearSVM_SVM_Naive_1000_Macro_F'
p5
(lp6
F0.5179355478742558
aF0.5094891303258497
aF0.5206179949147481
aF0.5149008563304012
aF0.5181313915141352
aF0.5206238401254056
aF0.5246312921846644
aF0.520468874804851
aF0.5096428324968372
aF0.5103368412310669
asS'LinearSVM_SVM_Naive_1600_Macro_F'
p7
(lp8
F0.5142318763644036
aF0.5159686852826462
aF0.5292547186175837
aF0.5270586915161063
aF0.5202494543395803
aF0.5128739498339742
aF0.5198213105078666
aF0.5212059637105109
aF0.5115063369734373
aF0.5298904772776799
asS'LinearSVM_SVM_Naive_100_Macro_F'
p9
(lp10
F0.4498548892219105
aF0.46716379713620276
aF0.4648793459390608
aF0.45171869298561124
aF0.45260598713326705
aF0.4540541140074349
aF0.46049621320832784
aF0.4557736049694055
aF0.4611672868563258
aF0.46194780706879923
asS'LinearSVM_SVM_Naive_1300_Macro_F'
p11
(lp12
F0.5104320580950502
aF0.5175404921521847
aF0.5140801888778505
aF0.5249735625560367
aF0.5296838852778886
aF0.5115409998765535
aF0.5248029333459087
aF0.5192761260616321
aF0.5136180687783463
aF0.5269696449916608
asS'LinearSVM_SVM_Naive_400_Macro_F'
p13
(lp14
F0.5167238146158238
aF0.5116926010482693
aF0.5134600005639967
aF0.5080390383049125
aF0.5129427902038954
aF0.5127483049594571
aF0.5052876159543109
aF0.5121628716266244
aF0.5092622925628936
aF0.5243594123831761
as.