(dp0
S'LinearSVM_SVM_Naive_700_Macro_F'
p1
(lp2
F0.5141723598473779
aF0.5319191515079146
aF0.5283308079665824
aF0.5238841528379119
aF0.49403386187989146
aF0.5046792314243529
aF0.5118921301789243
aF0.5307866427661689
aF0.5088071494705021
aF0.5229431555915197
asS'LinearSVM_SVM_Naive_1900_Macro_F'
p3
(lp4
F0.5075213256677039
aF0.5515533037447634
aF0.5368381525899343
aF0.5043180401869967
aF0.5147336989006842
aF0.5340111107470764
aF0.5388764508360677
aF0.5212654718715987
aF0.5053340669372974
aF0.5171953563245804
asS'LinearSVM_SVM_Naive_1000_Macro_F'
p5
(lp6
F0.519404045083767
aF0.5143847526465523
aF0.5274167892887972
aF0.5229889076312538
aF0.5299796553794863
aF0.5211033526107332
aF0.5463253899531082
aF0.5248192732541508
aF0.4988947283873447
aF0.5288667031000619
asS'LinearSVM_SVM_Naive_1600_Macro_F'
p7
(lp8
F0.5267462835454572
aF0.5178938591437646
aF0.523024147385646
aF0.5333242184849365
aF0.5183174678608985
aF0.5301972428239894
aF0.5130703087515425
aF0.5149036640307584
aF0.5345924329062555
aF0.5188811805100328
asS'LinearSVM_SVM_Naive_100_Macro_F'
p9
(lp10
F0.4733443024380207
aF0.42112480137338704
aF0.47175734868885244
aF0.4138903617512829
aF0.4149487090638504
aF0.46896464877781047
aF0.46675791580752934
aF0.4214765309131406
aF0.47964034169472736
aF0.4259246910787703
asS'LinearSVM_SVM_Naive_1300_Macro_F'
p11
(lp12
F0.5224618487929746
aF0.5148308193859714
aF0.5409253518654535
aF0.5335252526510391
aF0.5214569151248624
aF0.5272348080118826
aF0.5397324966817647
aF0.5213386037777592
aF0.5235188556548027
aF0.5127476031794843
asS'LinearSVM_SVM_Naive_400_Macro_F'
p13
(lp14
F0.5030278458719053
aF0.47082313554218647
aF0.48823992444272707
aF0.5230845114784145
aF0.5237126860959685
aF0.48329911557918526
aF0.5023461643410627
aF0.47139412846525175
aF0.5059481399760432
aF0.49691613602269946
as.