(dp0
S'LinearSVM_SVM_Naive_700_Macro_F'
p1
(lp2
F0.3930025552162281
aF0.3844142351631014
aF0.3923098085729426
aF0.40504576507780704
aF0.3967232158111259
aF0.3731438510110972
aF0.4043309001834896
aF0.39853640946361873
aF0.3960532424763512
aF0.4025750042127041
asS'LinearSVM_SVM_Naive_1900_Macro_F'
p3
(lp4
F0.38471577403860696
aF0.3945728845356639
aF0.3878194640489583
aF0.39595243066549174
aF0.39579787784686277
aF0.39920488729805637
aF0.3854319688979016
aF0.3874977138368399
aF0.39504880529786746
aF0.3883393756417757
asS'LinearSVM_SVM_Naive_1000_Macro_F'
p5
(lp6
F0.40492821951473135
aF0.3910590790883937
aF0.3911874806023947
aF0.408925537443498
aF0.3866226662619866
aF0.39706888748179847
aF0.3954209664804011
aF0.3938160204868384
aF0.401747449310862
aF0.39863915336037914
asS'LinearSVM_SVM_Naive_1600_Macro_F'
p7
(lp8
F0.3940024811208125
aF0.388837228522445
aF0.384109249687453
aF0.3859922643037624
aF0.3987277242517785
aF0.38720076174380175
aF0.3882113255507921
aF0.3816638902406744
aF0.38257092098457024
aF0.4020224360105219
asS'LinearSVM_SVM_Naive_100_Macro_F'
p9
(lp10
F0.3415512322110977
aF0.3225048259863841
aF0.30595495794103017
aF0.31184998799638547
aF0.33572248110822994
aF0.3066856934204394
aF0.32760849217604465
aF0.3053889049210851
aF0.31301561928234906
aF0.33959236339694415
asS'LinearSVM_SVM_Naive_1300_Macro_F'
p11
(lp12
F0.39341313832547714
aF0.39090053609738584
aF0.3978583581412008
aF0.39824059633619163
aF0.38984154963723566
aF0.3919577105515919
aF0.40589604127892204
aF0.38071312269145796
aF0.4009584026885174
aF0.3918320815834744
asS'LinearSVM_SVM_Naive_400_Macro_F'
p13
(lp14
F0.38753346451242104
aF0.3801442671330021
aF0.38730774837748017
aF0.3828160226611331
aF0.3758756375741075
aF0.39298882684733966
aF0.3639669115022895
aF0.38769254132291375
aF0.3836533001098545
aF0.3806797765211433
as.