(dp0
S'LinearSVM_SVM_Naive_700_Macro_F'
p1
(lp2
F0.527764608570061
aF0.5312298192874372
aF0.5296608899327051
aF0.5482983549879439
aF0.5241594200738654
aF0.533951563410085
aF0.5300964231939995
aF0.534807930968099
aF0.5211509058952907
aF0.5242192506710697
asS'LinearSVM_SVM_Naive_1900_Macro_F'
p3
(lp4
F0.5377769459859222
aF0.5480318262895758
aF0.5540247834864643
aF0.5564146146381507
aF0.5584909019103427
aF0.5384191070931703
aF0.5590611962194051
aF0.5432945619527018
aF0.5483189692999494
aF0.5519342781591193
asS'LinearSVM_SVM_Naive_1000_Macro_F'
p5
(lp6
F0.5329862393447133
aF0.5507779459666161
aF0.5346152991437474
aF0.5418114568034337
aF0.5438591895496241
aF0.5399174895997698
aF0.5483641478699383
aF0.5496673495271038
aF0.5453051662042652
aF0.5352806591139689
asS'LinearSVM_SVM_Naive_1600_Macro_F'
p7
(lp8
F0.5445146534554623
aF0.5500725214650843
aF0.5200330067901171
aF0.5577867903706174
aF0.5598719107831355
aF0.5351726317103586
aF0.5513468478323479
aF0.5388091745077861
aF0.5492551353686933
aF0.5506339649274935
asS'LinearSVM_SVM_Naive_100_Macro_F'
p9
(lp10
F0.34666112549248157
aF0.3359572547668624
aF0.3313625469760345
aF0.3342443158385193
aF0.35084695394041787
aF0.35026083995418245
aF0.3229456335696378
aF0.3427081999063727
aF0.3346011778054713
aF0.37247305147645104
asS'LinearSVM_SVM_Naive_1300_Macro_F'
p11
(lp12
F0.5326727478709937
aF0.5562274822483851
aF0.5512453522775532
aF0.5374869871236128
aF0.5530692902041833
aF0.561776697844741
aF0.5414086370417655
aF0.5327481985194513
aF0.5506028091638228
aF0.5459540053686083
asS'LinearSVM_SVM_Naive_400_Macro_F'
p13
(lp14
F0.5007875284615859
aF0.5232212338220685
aF0.5241609016776743
aF0.5115589182544911
aF0.4910349691616639
aF0.5024351098246366
aF0.5094860476825342
aF0.5067872284069707
aF0.5060999816301227
aF0.5218324448703993
as.