(dp0
S'NB_Naive_1300_Macro_F'
p1
(lp2
F0.807489442712163
aF0.7938254609465936
aF0.7954656699916439
aF0.7876475247983554
aF0.8063540945233562
aF0.7846176342380167
aF0.7956061448501759
aF0.811767077630456
aF0.8000331376816952
aF0.7944176430033999
asS'NB_Smote_700_Macro_F'
p3
(lp4
F0.7974258158641812
aF0.8022617879045795
aF0.8079363238913283
aF0.7924133695121679
aF0.8003371390391282
aF0.8047270148326962
aF0.8035890648735757
aF0.7911651340139292
aF0.8044958207504053
aF0.8039595912287895
asS'NB_Smote_1600_Macro_F'
p5
(lp6
F0.8475637054279861
aF0.8390802592209414
aF0.8521134869631428
aF0.8476084275235489
aF0.8474334723539767
aF0.8358024320106986
aF0.8477168307702714
aF0.8374999646438871
aF0.8596748384676463
aF0.8491120700424855
asS'NB_TunedLearner_700_Macro_F'
p7
(lp8
F0.8105751428990166
aF0.8091981934195256
aF0.8021884641624043
aF0.8065053303831854
aF0.8073131787896287
aF0.8126933034100682
aF0.8019045666245029
aF0.8037884963368557
aF0.796795475416046
aF0.8142221853064391
asS'NB_Naive_1600_Macro_F'
p9
(lp10
F0.8018595159942868
aF0.7975181507105188
aF0.8138042683371757
aF0.7886944802268384
aF0.8050144435516063
aF0.8058545127334382
aF0.8088642870435003
aF0.7994837809749108
aF0.7914291690083766
aF0.7939886136983221
asS'NB_Naive_1900_Macro_F'
p11
(lp12
F0.7997828622104278
aF0.8059035373077765
aF0.8047204948362027
aF0.7993434989321299
aF0.8132869281525491
aF0.8003254959567263
aF0.8125460151625429
aF0.8048019642457266
aF0.7969708124885417
aF0.8058147440593887
asS'NB_Naive_700_Macro_F'
p13
(lp14
F0.770738757422497
aF0.7631253875751448
aF0.754702300898029
aF0.7557168227354165
aF0.7571693739096842
aF0.7603919905824421
aF0.757803885372708
aF0.7628213158228083
aF0.7513631157550448
aF0.7714828957151251
asS'NB_TunedLearner_1300_Macro_F'
p15
(lp16
F0.8403947654566356
aF0.8510938529242396
aF0.8400849603200243
aF0.8476508291208618
aF0.842423706555774
aF0.8404941336136154
aF0.8383922409247179
aF0.853258146501516
aF0.8491040770459212
aF0.8424379275768061
asS'NB_TunedLearner_1600_Macro_F'
p17
(lp18
F0.8458974729652848
aF0.8538354459571038
aF0.8477762278378567
aF0.855011979821176
aF0.8627624274424737
aF0.8521190179506865
aF0.8572990831186997
aF0.8552284361320632
aF0.8526210593908796
aF0.8495018252950031
asS'NB_Naive_100_Macro_F'
p19
(lp20
F0.5458677663660328
aF0.5538389340671734
aF0.5355526063690388
aF0.5512855105502897
aF0.5361248807497163
aF0.5290623343762044
aF0.5438115798903064
aF0.5488649371851975
aF0.5578453298036241
aF0.5473651832288271
asS'NB_Smote_400_Macro_F'
p21
(lp22
F0.7448770050509492
aF0.741654801679448
aF0.73463352341196
aF0.7278914648514276
aF0.7214032977396877
aF0.7299399937133414
aF0.7380283955379958
aF0.7381034299742403
aF0.7295494831155196
aF0.7278045252041979
asS'NB_TunedLearner_1900_Macro_F'
p23
(lp24
F0.8583298345582681
aF0.8622572388007476
aF0.8612262264357309
aF0.864580956006281
aF0.8648687795985524
aF0.8567582595059771
aF0.8651331016648706
aF0.8690475475864358
aF0.862524679859683
aF0.8499153093664504
asS'NB_TunedLearner_100_Macro_F'
p25
(lp26
F0.58847090742149
aF0.6113339380198838
aF0.5848097413879023
aF0.6062390819505509
aF0.5908374071935371
aF0.600274815377515
aF0.5916208940882641
aF0.5908000877690132
aF0.5950819613774714
aF0.6035692913672013
asS'NB_Smote_100_Macro_F'
p27
(lp28
F0.5989027875539074
aF0.5798942177658273
aF0.5706282750737107
aF0.6053567907834846
aF0.5767746523486252
aF0.6039538450672173
aF0.5787753175640101
aF0.5730746253226051
aF0.5945330470619558
aF0.5908356317251987
asS'NB_Smote_1300_Macro_F'
p29
(lp30
F0.8438902771965462
aF0.8394697892864526
aF0.839265755731652
aF0.8294482646911929
aF0.8412542972236512
aF0.8410691296578386
aF0.8360047949216892
aF0.8447298841382076
aF0.8341841119903831
aF0.8363375575718296
asS'NB_Naive_400_Macro_F'
p31
(lp32
F0.7000179837152937
aF0.7092382986269761
aF0.6990154230096794
aF0.7019624152987809
aF0.6979757458203772
aF0.7006028442325016
aF0.6952143015262047
aF0.6959897379216161
aF0.7036023986143839
aF0.7214000204711037
asS'NB_Smote_1900_Macro_F'
p33
(lp34
F0.8541163040133085
aF0.8593466693013821
aF0.8480552385510796
aF0.8534792333969605
aF0.8552609767805927
aF0.8501899405362326
aF0.858634094273993
aF0.8524096898793634
aF0.8528553227145579
aF0.8558741407584644
asS'NB_TunedLearner_1000_Macro_F'
p35
(lp36
F0.8339724423053024
aF0.8381723854225807
aF0.8208402037645979
aF0.8315445081796258
aF0.8304170772908432
aF0.825313473942872
aF0.8355140139456467
aF0.8324469504717715
aF0.8421224334434535
aF0.8241951550330219
asS'NB_TunedLearner_400_Macro_F'
p37
(lp38
F0.7377793676899709
aF0.7487623420412
aF0.7319546177874856
aF0.7543903665641767
aF0.7371184949680877
aF0.7409136580252268
aF0.7338012794780114
aF0.7439712159667801
aF0.7383941921377271
aF0.7435929973486177
asS'NB_Smote_1000_Macro_F'
p39
(lp40
F0.8214589622190912
aF0.8190034113793198
aF0.8316811768053366
aF0.8313331737964677
aF0.8245378038361237
aF0.8210819583493746
aF0.8199490830589314
aF0.8296152126974877
aF0.8288543413909709
aF0.831918722420245
asS'NB_Naive_1000_Macro_F'
p41
(lp42
F0.7795289429382034
aF0.792708727973391
aF0.7699439268244631
aF0.794989025710419
aF0.7734000220591352
aF0.781675803655164
aF0.7791886122305306
aF0.7901287584582458
aF0.7820313966147479
aF0.7763773539107434
as.