(dp0
S'NB_Naive_100_Macro_F'
p1
(lp2
F0.4700108221322849
aF0.47109516414571634
aF0.48782021411031407
aF0.4725267800278449
aF0.474920843604135
aF0.4626442369775886
aF0.4782756635317879
aF0.4747234360405601
aF0.4864146697591968
aF0.4698168356349486
asS'NB_Smote_100_Macro_F'
p3
(lp4
F0.5410538085841556
aF0.5476592884924344
aF0.5519414559880762
aF0.5451943853665167
aF0.5475997617598777
aF0.5479809015255062
aF0.5514627608917759
aF0.5476212137434084
aF0.5465073258346387
aF0.5466087716519737
asS'NB_TunedLearner_100_Macro_F'
p5
(lp6
F0.5572787981773452
aF0.5605126091778471
aF0.5598855778056248
aF0.5524076531030799
aF0.5594112986843756
aF0.5607961054642152
aF0.5583867325101238
aF0.5591446464847283
aF0.5543123726054382
aF0.5602559701831937
as.