(dp0
S'NB_Naive_1300_Macro_F'
p1
(lp2
F0.35763509745703864
aF0.3908172782283763
aF0.35331986012085453
aF0.3499964035510722
aF0.3632037576096967
aF0.35091893265217683
aF0.3935812594561885
aF0.3631840083178317
aF0.3490052321897222
aF0.388194469739522
asS'NB_Smote_700_Macro_F'
p3
(lp4
F0.46788235763636415
aF0.47417738286970096
aF0.4640893263730432
aF0.47178581223786786
aF0.47353728070464485
aF0.4759125575466226
aF0.46421671473560255
aF0.469616631254055
aF0.47336265412990136
aF0.4687842499533126
asS'NB_Smote_1600_Macro_F'
p5
(lp6
F0.47358650303729444
aF0.4712002957479634
aF0.4704385359741658
aF0.4705921786679982
aF0.4708810242911182
aF0.47962126779234976
aF0.45932539866973293
aF0.46776904757313514
aF0.4665722836106718
aF0.4658015245720754
asS'NB_TunedLearner_700_Macro_F'
p7
(lp8
F0.4669362113810211
aF0.4799105657057535
aF0.4749672579692459
aF0.48380956094885674
aF0.48275985625590756
aF0.4700554007830259
aF0.4797927538890443
aF0.48149829434033065
aF0.48090412026881874
aF0.4776181883166895
asS'NB_Naive_1600_Macro_F'
p9
(lp10
F0.3465400157176976
aF0.3612336225170493
aF0.3967951190120181
aF0.35760583530399503
aF0.35857960159411717
aF0.34778403579657957
aF0.36125558825776266
aF0.3495023904941704
aF0.399172050481449
aF0.35771294292229483
asS'NB_Naive_1900_Macro_F'
p11
(lp12
F0.3565307429548555
aF0.35037696010864355
aF0.3550002326679683
aF0.35843339263736396
aF0.3784761950176237
aF0.3562621956569663
aF0.3594373343248871
aF0.3786281985249885
aF0.35037403266632183
aF0.35039835606644903
asS'NB_Naive_700_Macro_F'
p13
(lp14
F0.38239617949460386
aF0.3381986497476211
aF0.34870299909092495
aF0.3876083365458019
aF0.331290193210191
aF0.35316535265176446
aF0.37580128336779217
aF0.33922420166521544
aF0.35087714264321784
aF0.3728480261913774
asS'NB_TunedLearner_1300_Macro_F'
p15
(lp16
F0.4788282433833543
aF0.47706704528461213
aF0.474334949773032
aF0.47899466854147915
aF0.48320735396471415
aF0.4795410120702967
aF0.4797541938166794
aF0.47202323252193334
aF0.4754062184213099
aF0.47886534521228596
asS'NB_TunedLearner_1600_Macro_F'
p17
(lp18
F0.4750427918070648
aF0.47796967774986393
aF0.479423582100108
aF0.47507398935645745
aF0.4820169170883065
aF0.48557657734671794
aF0.4679145788990919
aF0.4748147359696093
aF0.47866826420950864
aF0.48021647913680465
asS'NB_Naive_100_Macro_F'
p19
(lp20
F0.2764442176816264
aF0.27721420799978685
aF0.28658933412252874
aF0.27101287665471135
aF0.2894104553258214
aF0.27040925058169907
aF0.2848013057876638
aF0.28145214365967425
aF0.28372168357795857
aF0.2757952930433985
asS'NB_Smote_400_Macro_F'
p21
(lp22
F0.4642945273420267
aF0.46838866740367613
aF0.4675387502344686
aF0.4739653777534495
aF0.4682009846907002
aF0.4679888861599624
aF0.4664713859311725
aF0.47225712819633875
aF0.47421977811551813
aF0.4607421376849437
asS'NB_TunedLearner_1900_Macro_F'
p23
(lp24
F0.4844121728037013
aF0.4732377588366551
aF0.48609364888534884
aF0.47822381401973374
aF0.47488251392499137
aF0.47996513317765244
aF0.4762058276298713
aF0.4827001428375531
aF0.48011499543751746
aF0.47780534938536356
asS'NB_TunedLearner_100_Macro_F'
p25
(lp26
F0.4709014536245512
aF0.47847669971495294
aF0.465978045095271
aF0.46111258310311315
aF0.47632867145839697
aF0.46302203139956005
aF0.47629969872037253
aF0.47318427838669297
aF0.4699226457662771
aF0.46592720493414047
asS'NB_Smote_100_Macro_F'
p27
(lp28
F0.4526724333446629
aF0.45029850957732637
aF0.4579914676289217
aF0.4513225378782502
aF0.45681185841935734
aF0.4477279893196231
aF0.44923156024302785
aF0.4534876327035333
aF0.45755423921038796
aF0.45784248276960793
asS'NB_Smote_1300_Macro_F'
p29
(lp30
F0.4649943944442669
aF0.46866925548002525
aF0.4774779568194887
aF0.4691963228697819
aF0.4681263795509847
aF0.4698885845712435
aF0.4703463589042579
aF0.46845283093668705
aF0.46917842375885366
aF0.46517096170847466
asS'NB_Naive_400_Macro_F'
p31
(lp32
F0.30951017904880207
aF0.32368433214226394
aF0.3344411126717561
aF0.3251089866324278
aF0.31996760406192626
aF0.33213113229369823
aF0.30892941230159277
aF0.31674557037904444
aF0.3275448499185911
aF0.3208506034541128
asS'NB_Smote_1900_Macro_F'
p33
(lp34
F0.4747986949900238
aF0.4665288515425698
aF0.4684810518824811
aF0.4666538593592768
aF0.47383166221409556
aF0.46416353808298916
aF0.47215818391793174
aF0.4690048065150639
aF0.4673083713518804
aF0.47716382139656877
asS'NB_TunedLearner_1000_Macro_F'
p35
(lp36
F0.4809007903371795
aF0.48489993195478165
aF0.47355911851275834
aF0.473631916135824
aF0.47461538898890565
aF0.46533199153299365
aF0.4780404594365318
aF0.4847559835755816
aF0.4775830228315291
aF0.4786703402794583
asS'NB_TunedLearner_400_Macro_F'
p37
(lp38
F0.4703156769132012
aF0.4759223638863956
aF0.46970936982357603
aF0.4840718693862432
aF0.48499927863036196
aF0.4761117120905704
aF0.4749331786322058
aF0.47838237393340893
aF0.4791467523702575
aF0.4786980597362875
asS'NB_Smote_1000_Macro_F'
p39
(lp40
F0.46753310964311867
aF0.4710262523872027
aF0.4709714084911411
aF0.4680015897827645
aF0.4682149692686701
aF0.4761226287995757
aF0.47203483891192394
aF0.4668921515464806
aF0.46518947402400895
aF0.4656962129782166
asS'NB_Naive_1000_Macro_F'
p41
(lp42
F0.35475804849831605
aF0.35489476509336093
aF0.34923923764113707
aF0.3545873175838257
aF0.38459891662669715
aF0.3478399582295187
aF0.3536414508135036
aF0.39569957902112396
aF0.35210945159896717
aF0.35094555236714176
as.