(dp0
S'NB_Naive_100_Macro_F'
p1
(lp2
F0.33153871824221753
aF0.34629530639698325
aF0.33657399995242565
aF0.3266717998061592
aF0.3400436642557382
aF0.3365177382338523
aF0.33799807244299257
aF0.33790293875589184
aF0.34613000139830674
aF0.331208000742786
asS'NB_Smote_100_Macro_F'
p3
(lp4
F0.4630441710609668
aF0.46237390787302646
aF0.4651500061249523
aF0.46634219590010456
aF0.46206931271672036
aF0.4676564176227565
aF0.46329145844117464
aF0.45923496720468154
aF0.4638811553066631
aF0.4665430137161251
asS'NB_TunedLearner_100_Macro_F'
p5
(lp6
F0.4683167691818371
aF0.46927146343091897
aF0.4616599203521317
aF0.4690949574306197
aF0.46242101129486035
aF0.4724439781232536
aF0.4651322006772563
aF0.4636726343046369
aF0.4670992504953587
aF0.4650791763401646
as.