(dp0
S'NB_Naive_1300_Macro_F'
p1
(lp2
F0.4345672255337507
aF0.4378302459758282
aF0.4345595006375974
aF0.42826227270759876
aF0.4422309511180703
aF0.41226849052796205
aF0.425629233029324
aF0.4558636306255991
aF0.4413022922382685
aF0.4438458238877341
asS'NB_Smote_700_Macro_F'
p3
(lp4
F0.50793332460704
aF0.4972935691844336
aF0.5236231921859192
aF0.48557136019033664
aF0.49365862530764926
aF0.5095294898085142
aF0.4934005583656332
aF0.5062580240853329
aF0.5021368419397068
aF0.49983078540779474
asS'NB_Smote_1600_Macro_F'
p5
(lp6
F0.5505789713820277
aF0.5473719528435461
aF0.5480815648633078
aF0.5348871978648643
aF0.5369791134033547
aF0.5418780328601582
aF0.5150962447658902
aF0.5533696125546657
aF0.5400005681585854
aF0.5487615635201997
asS'NB_TunedLearner_700_Macro_F'
p7
(lp8
F0.49715493405680994
aF0.5221201866867302
aF0.5192197266189811
aF0.5116075919214801
aF0.49709886705804035
aF0.5071325914748611
aF0.5192224674811784
aF0.5146071490354841
aF0.5072074076714757
aF0.48263426912579116
asS'NB_Naive_1600_Macro_F'
p9
(lp10
F0.44996875105840145
aF0.44960173160859956
aF0.4426323369234312
aF0.48630345472141445
aF0.44425141889944186
aF0.48420254979159766
aF0.44248422237520063
aF0.4265120623852983
aF0.43465549419709826
aF0.466184432518495
asS'NB_Naive_1900_Macro_F'
p11
(lp12
F0.456796764274561
aF0.44152963724871075
aF0.44691998864797433
aF0.4383025972975614
aF0.4611367236596117
aF0.45562881391504517
aF0.4427769262257256
aF0.42532224647414346
aF0.45647007372560205
aF0.4549261062149206
asS'NB_Naive_700_Macro_F'
p13
(lp14
F0.4201888834015271
aF0.42371232068838016
aF0.40787023363950525
aF0.39640444793149227
aF0.43094935648044036
aF0.41291922580993223
aF0.4213607303925264
aF0.41904361449438104
aF0.4001961518774047
aF0.4230567773301754
asS'NB_TunedLearner_1300_Macro_F'
p15
(lp16
F0.5450240214719739
aF0.535866603335826
aF0.5466386063117372
aF0.5486829047408871
aF0.5467486535633467
aF0.5355019773890024
aF0.5408419987246205
aF0.5445448020884639
aF0.5527858331916821
aF0.55102949031425
asS'NB_TunedLearner_1600_Macro_F'
p17
(lp18
F0.5587718750875718
aF0.5463079402881691
aF0.5448479261486437
aF0.5489186018824146
aF0.5747655448973243
aF0.5549870250500643
aF0.554383830408935
aF0.5509079282249686
aF0.546160889672961
aF0.5516747794947812
asS'NB_Naive_100_Macro_F'
p19
(lp20
F0.29883658833637694
aF0.29975274259513957
aF0.2970744977566005
aF0.2968528600605388
aF0.3115817010860926
aF0.31158869215262247
aF0.2941182071929006
aF0.29766869049672184
aF0.2932110675048785
aF0.2968663143403231
asS'NB_Smote_400_Macro_F'
p21
(lp22
F0.47007025559613164
aF0.4837549345804543
aF0.4683939949260214
aF0.469894891800313
aF0.4672461205342273
aF0.4792255810355589
aF0.47186764091117567
aF0.49048167304296725
aF0.4713505898670994
aF0.44983774214901057
asS'NB_TunedLearner_1900_Macro_F'
p23
(lp24
F0.5516126818855676
aF0.5681591435191414
aF0.5588693515310454
aF0.5675336960280435
aF0.5473675304092936
aF0.5642044282160035
aF0.551760563994353
aF0.5486659772040123
aF0.5521745324191573
aF0.5658791096455281
asS'NB_TunedLearner_100_Macro_F'
p25
(lp26
F0.42456875390784704
aF0.40429941346793075
aF0.40929192728787606
aF0.388244182255086
aF0.42975528778977573
aF0.417564064379309
aF0.42741601273492097
aF0.39532716136522533
aF0.4026250474845605
aF0.4141570409289354
asS'NB_Smote_100_Macro_F'
p27
(lp28
F0.39756436907646664
aF0.4162297646673545
aF0.3954237781941397
aF0.39226837006516685
aF0.40198485281910357
aF0.39449599524055606
aF0.39033056780922804
aF0.4059688934609614
aF0.40590288060365515
aF0.39198193153097355
asS'NB_Smote_1300_Macro_F'
p29
(lp30
F0.5325272830040056
aF0.5409777169491338
aF0.5325830228614741
aF0.5477626129500585
aF0.5305712414716067
aF0.5421115672762683
aF0.5296919013988608
aF0.528048716919877
aF0.522090624084227
aF0.5514684978597323
asS'NB_Naive_400_Macro_F'
p31
(lp32
F0.39188566651297757
aF0.38924074265092734
aF0.3647072575928334
aF0.3946429954879263
aF0.3955777862648908
aF0.39612212297072524
aF0.38147218798398086
aF0.4054902925168216
aF0.4011573893327664
aF0.3818573681020737
asS'NB_Smote_1900_Macro_F'
p33
(lp34
F0.5500016078333211
aF0.5389628020596097
aF0.5396948291939259
aF0.5580730172024035
aF0.560400674224642
aF0.5561903409641266
aF0.5487654822259161
aF0.5493061613255742
aF0.5586481656434177
aF0.5453510614053607
asS'NB_TunedLearner_1000_Macro_F'
p35
(lp36
F0.5307424486390725
aF0.5488342253260993
aF0.5180320226157165
aF0.530059950100966
aF0.5356323491281373
aF0.5318370237083467
aF0.522080498441762
aF0.5206528342636498
aF0.5379924587763754
aF0.5351735078181633
asS'NB_TunedLearner_400_Macro_F'
p37
(lp38
F0.4748596392389624
aF0.483824693572382
aF0.46600425968555803
aF0.4794583726662659
aF0.4888303606505443
aF0.48264686002516005
aF0.4487737565351448
aF0.47445816914994937
aF0.4746091845331587
aF0.4953977208102307
asS'NB_Smote_1000_Macro_F'
p39
(lp40
F0.5193775579284546
aF0.5325524592783898
aF0.5214314853826867
aF0.5277920061144523
aF0.5214739478909575
aF0.5433630955033848
aF0.5251236722827786
aF0.5279042555688654
aF0.5207279380165306
aF0.5203146161888831
asS'NB_Naive_1000_Macro_F'
p41
(lp42
F0.4080011870167609
aF0.42500694946439016
aF0.4094451571695281
aF0.43993328424164113
aF0.439929130401851
aF0.43548254226520644
aF0.47895081637804265
aF0.43240102415581777
aF0.419316417434671
aF0.40578455373580435
as.