(dp0
S'NB_TunedSmote_100_yes'
p1
(lp2
F0.2713286713286713
aF0.2782694198623402
aF0.2810551558752998
aF0.2854349951124145
aF0.2937276899541051
aF0.27911362564827913
aF0.27443946188340806
aF0.2888888888888889
aF0.2720897615708275
aF0.280188679245283
asS'NB_TunedLearner_1000_yes'
p3
(lp4
F0.40571088637715647
aF0.4119760479041916
aF0.4192192192192193
aF0.41711874623267026
aF0.4193353474320242
aF0.4132231404958677
aF0.41350710900473936
aF0.4133016627078384
aF0.40991535671100365
aF0.416
asS'NB_TunedSmote_1000_yes'
p5
(lp6
F0.40023269342641066
aF0.4209884075655888
aF0.4088729016786571
aF0.4043452021726011
aF0.4467532467532468
aF0.4276807980049875
aF0.4161154539987974
aF0.4134212103055722
aF0.41102456560814854
aF0.4267352185089974
asS'NB_Smote_100_yes'
p7
(lp8
F0.2804182509505704
aF0.2821852731591449
aF0.2869358669833729
aF0.27573696145124715
aF0.2892057026476578
aF0.2813975448536355
aF0.27702386523163314
aF0.2846371347785109
aF0.28932038834951457
aF0.27397260273972607
asS'NB_TunedLearner_700_yes'
p9
(lp10
F0.3759733036707452
aF0.3983833718244804
aF0.38121546961325964
aF0.3819209039548022
aF0.3854166666666667
aF0.38084507042253524
aF0.3900226757369614
aF0.3928571428571428
aF0.3921794134560092
aF0.3767467859139184
asS'NB_TunedSmote_700_yes'
p11
(lp12
F0.36166756903086084
aF0.39069767441860465
aF0.3880428652002256
aF0.37744276940256843
aF0.3936545240893067
aF0.37471264367816093
aF0.397196261682243
aF0.37892376681614354
aF0.40310077519379844
aF0.3735787763941527
asS'NB_Smote_700_yes'
p13
(lp14
F0.3695299837925446
aF0.38776687824581646
aF0.38745800671892494
aF0.37110016420361247
aF0.3739565943238731
aF0.3758241758241758
aF0.36938435940099834
aF0.3881278538812786
aF0.3844041735310269
aF0.3848797250859106
asS'NB_Naive_100_yes'
p15
(lp16
I0
aI0
aI0
aI0
aI0
aI0
aI0
aI0
aI0
aI0
asS'NB_Naive_400_yes'
p17
(lp18
I0
aI0
aI0
aI0
aI0
aI0
aI0
aI0
aI0
aI0
asS'NB_Naive_700_yes'
p19
(lp20
F0.04712041884816753
aF0.02638522427440633
aF0.031578947368421054
aF0.026455026455026457
aF0.021220159151193636
aF0.0053475935828877
aF0.0316622691292876
aF0.021108179419525065
aF0.0316622691292876
aF0.03674540682414698
asS'NB_TunedLearner_100_yes'
p21
(lp22
F0.27970749542961604
aF0.28980156898938625
aF0.2733548090197883
aF0.27450980392156865
aF0.27765338110165694
aF0.28453418999541075
aF0.2780600461893764
aF0.2761774119798811
aF0.28673196794300976
aF0.2686840898670335
asS'NB_Naive_1000_yes'
p23
(lp24
F0.10075566750629722
aF0.12871287128712872
aF0.14146341463414633
aF0.10552763819095477
aF0.1057934508816121
aF0.12903225806451613
aF0.09644670050761421
aF0.1271393643031785
aF0.105
aF0.13895781637717122
asS'NB_Smote_1000_yes'
p25
(lp26
F0.4293577981651375
aF0.41991601679664065
aF0.40214158239143366
aF0.3997634535777646
aF0.4152744630071599
aF0.40494408475573873
aF0.4223300970873787
aF0.4156958920907419
aF0.4178205900060205
aF0.3992953611274222
asS'NB_TunedSmote_400_yes'
p27
(lp28
F0.3673469387755102
aF0.3755555555555556
aF0.36688311688311687
aF0.3732274532047646
aF0.3545647558386412
aF0.361353711790393
aF0.35464803868887695
aF0.36403750689464975
aF0.3680781758957655
aF0.36038961038961037
asS'NB_Smote_400_yes'
p29
(lp30
F0.36021505376344093
aF0.3677795442501325
aF0.3702081051478642
aF0.3547008547008547
aF0.363036303630363
aF0.3626492942453854
aF0.35410176531671866
aF0.3765736179529283
aF0.35748792270531404
aF0.36004273504273504
asS'NB_TunedLearner_400_yes'
p31
(lp32
F0.353573347662547
aF0.369197160021846
aF0.3606382978723404
aF0.35772357723577236
aF0.35944206008583696
aF0.3490073145245559
aF0.3765736179529283
aF0.3532494758909853
aF0.3706563706563707
aF0.36393264530146663
as.