(dp0
S'NB_TunedLearner_400_Macro_F'
p1
(lp2
F0.27683154364920765
aF0.2779881833244496
asS'NB_TunedLearner_1000_Macro_F'
p3
(lp4
F0.3067075763932022
aF0.29857665051740107
asS'NB_TunedLearner_700_Macro_F'
p5
(lp6
F0.2949147224573509
aF0.29322000795791126
asS'NB_TunedLearner_100_Macro_F'
p7
(lp8
F0.2442598232134414
aF0.2409895363602677
as.