(dp0
S'NB_Naive_400_Macro_F'
p1
(lp2
F0.14842047485245408
aF0.14406521127371139
asS'NB_TunedLearner_1000_Macro_F'
p3
(lp4
F0.40438216038057784
aF0.4021686727773858
asS'NB_Smote_100_Macro_F'
p5
(lp6
F0.31664491078679113
aF0.31651520595812216
asS'NB_Naive_700_Macro_F'
p7
(lp8
F0.15298573785649633
aF0.1603228734292838
asS'NB_Smote_700_Macro_F'
p9
(lp10
F0.3819526146422601
aF0.3815941749361173
asS'NB_Naive_100_Macro_F'
p11
(lp12
F0.10505759787280337
aF0.11494064819159208
asS'NB_TunedLearner_700_Macro_F'
p13
(lp14
F0.3959955557856037
aF0.4002261703907425
asS'NB_Naive_1000_Macro_F'
p15
(lp16
F0.16164534039090298
aF0.163430592875323
asS'NB_Smote_400_Macro_F'
p17
(lp18
F0.37533723579754685
aF0.3780701591144473
asS'NB_TunedLearner_400_Macro_F'
p19
(lp20
F0.39427494634234894
aF0.3884570675624834
asS'NB_Smote_1000_Macro_F'
p21
(lp22
F0.38589036815238636
aF0.38821198125224454
asS'NB_TunedLearner_100_Macro_F'
p23
(lp24
F0.32473048713672864
aF0.32918197379157893
as.