(dp0
S'NB_Naive_400_Macro_F'
p1
(lp2
F0.15624690041502973
aF0.14506725065939124
asS'NB_TunedLearner_1000_Macro_F'
p3
(lp4
F0.26070402264695464
aF0.2629458183586269
asS'NB_Smote_100_Macro_F'
p5
(lp6
F0.19751424807381016
aF0.19847723307376758
asS'NB_Naive_700_Macro_F'
p7
(lp8
F0.1417193649481577
aF0.1541956070413025
asS'NB_Smote_700_Macro_F'
p9
(lp10
F0.24317050454914887
aF0.2511295047787637
asS'NB_Naive_100_Macro_F'
p11
(lp12
F0.0986347062678006
aF0.09886555543609969
asS'NB_TunedLearner_700_Macro_F'
p13
(lp14
F0.268792624715576
aF0.2693793362634532
asS'NB_Naive_1000_Macro_F'
p15
(lp16
F0.14571055451339796
aF0.14345482933943984
asS'NB_Smote_400_Macro_F'
p17
(lp18
F0.24736854851939458
aF0.24673201018162785
asS'NB_TunedLearner_400_Macro_F'
p19
(lp20
F0.2629194670800499
aF0.26134740605428863
asS'NB_Smote_1000_Macro_F'
p21
(lp22
F0.24343776273027173
aF0.2449591105019089
asS'NB_TunedLearner_100_Macro_F'
p23
(lp24
F0.20494214848013095
aF0.20401499992639083
as.