(dp0
S'NB_Naive_400_Macro_F'
p1
(lp2
F0.21462099617773014
aF0.22493045428839842
asS'NB_TunedLearner_1000_Macro_F'
p3
(lp4
F0.4359239238369816
aF0.4382524313104483
asS'NB_Smote_100_Macro_F'
p5
(lp6
F0.3056707462898227
aF0.308574325161081
asS'NB_Naive_700_Macro_F'
p7
(lp8
F0.25894289150632094
aF0.2518896183639563
asS'NB_Smote_700_Macro_F'
p9
(lp10
F0.41997831871047836
aF0.4224938149519051
asS'NB_Naive_100_Macro_F'
p11
(lp12
F0.13734566930345568
aF0.13521166171357538
asS'NB_TunedLearner_700_Macro_F'
p13
(lp14
F0.42587566936192395
aF0.4231781560375216
asS'NB_Naive_1000_Macro_F'
p15
(lp16
F0.2729557351377083
aF0.2701857907140603
asS'NB_Smote_400_Macro_F'
p17
(lp18
F0.3877537710064258
aF0.39075620185959226
asS'NB_TunedLearner_400_Macro_F'
p19
(lp20
F0.39313142878187457
aF0.3976160379528537
asS'NB_Smote_1000_Macro_F'
p21
(lp22
F0.4289995508514391
aF0.4359181093608783
asS'NB_TunedLearner_100_Macro_F'
p23
(lp24
F0.3138902334044977
aF0.31023340515092845
as.