(dp0
S'NB_Naive_1300_Macro_F'
p1
(lp2
F0.7996524522258135
aF0.7986802325844358
aF0.8036551713679331
aF0.7901443997546478
aF0.7952095141790368
aF0.7891602194110433
aF0.7940765538926924
aF0.8052981461395842
aF0.7934858112681109
aF0.8142995289992961
asS'NB_Smote_700_Macro_F'
p3
(lp4
F0.8074987312821865
aF0.7955938713673042
aF0.7975121928881987
aF0.7988908176992549
aF0.800194748687243
aF0.8021339502294361
aF0.8043206465161947
aF0.7839695119453027
aF0.8087763509351366
aF0.7988445331371833
asS'NB_Smote_1600_Macro_F'
p5
(lp6
F0.838537776755935
aF0.8478757557119515
aF0.8477303704070551
aF0.8519095708641744
aF0.8423252015450461
aF0.8391382528619773
aF0.8457343562694489
aF0.8429698515187861
aF0.8524605521556721
aF0.8511260646949091
asS'NB_TunedLearner_700_Macro_F'
p7
(lp8
F0.7935309934798247
aF0.7988448055773547
aF0.811882210259229
aF0.819876689045154
aF0.8092110462283383
aF0.8097052604980148
aF0.807786138562564
aF0.8074254919746836
aF0.7984296346113188
aF0.8104818996388166
asS'NB_Naive_1600_Macro_F'
p9
(lp10
F0.7978865301733367
aF0.7958483389501668
aF0.8154343824879835
aF0.8002228506182328
aF0.801122778565095
aF0.8072687805988211
aF0.7945238720238406
aF0.7979487494140379
aF0.7985893455294915
aF0.8073889771700399
asS'NB_Naive_1900_Macro_F'
p11
(lp12
F0.8115119725018416
aF0.8080558154808604
aF0.8125662910177455
aF0.7961404540647282
aF0.7937370957812617
aF0.8022361536705819
aF0.808035605613343
aF0.798849960338986
aF0.8013081692018174
aF0.8047335577755458
asS'NB_Naive_700_Macro_F'
p13
(lp14
F0.7590380487852023
aF0.7578098637691234
aF0.7692237870125249
aF0.7625265769227781
aF0.7552313114085117
aF0.7715656322031994
aF0.7510200618905887
aF0.7658032058505194
aF0.7542328426823905
aF0.7560011276651457
asS'NB_TunedLearner_1300_Macro_F'
p15
(lp16
F0.8457915860203586
aF0.8393781088452144
aF0.842744550093683
aF0.8550461313600305
aF0.8409464208817283
aF0.8501807105777683
aF0.8461803284353276
aF0.8431488251760179
aF0.8409602747094523
aF0.8473348318644327
asS'NB_TunedLearner_1600_Macro_F'
p17
(lp18
F0.853310289559125
aF0.8527995958947334
aF0.8492492327104133
aF0.8503906375509951
aF0.8604309767240852
aF0.8523769581422981
aF0.8554773250055946
aF0.8531483521375987
aF0.854153816925395
aF0.8545950046895148
asS'NB_Naive_100_Macro_F'
p19
(lp20
F0.534890670016401
aF0.546523938291162
aF0.5409764765260134
aF0.5563914604086307
aF0.5518651559481186
aF0.546727244295051
aF0.5528730301661926
aF0.5361447970620131
aF0.5386265329201932
aF0.5450775967753725
asS'NB_Smote_400_Macro_F'
p21
(lp22
F0.7416083277922256
aF0.7281363345854045
aF0.7229066397855319
aF0.7358115859196269
aF0.7386123219070779
aF0.7319571733008813
aF0.7311502333278419
aF0.7386191058119408
aF0.7342628363508177
aF0.7421147615078886
asS'NB_TunedLearner_1900_Macro_F'
p23
(lp24
F0.855542552533852
aF0.8632287168478164
aF0.8549623644283816
aF0.8599279045697191
aF0.8642379961022584
aF0.8599538344022684
aF0.8628599028191415
aF0.861175369316833
aF0.8649451643062714
aF0.8634733916732854
asS'NB_TunedLearner_100_Macro_F'
p25
(lp26
F0.6049901599183966
aF0.5983982618747761
aF0.5838557552070242
aF0.5998908443231238
aF0.6002740899717365
aF0.5980181050239404
aF0.5985226477234296
aF0.6176495633975828
aF0.5923878629331026
aF0.5846322646058116
asS'NB_Smote_100_Macro_F'
p27
(lp28
F0.593135056695293
aF0.5768189784699337
aF0.5801449161724063
aF0.6007661530263759
aF0.5872577631397717
aF0.590516491373645
aF0.5870465194781963
aF0.5791519278417474
aF0.6000565644896013
aF0.5876764981146148
asS'NB_Smote_1300_Macro_F'
p29
(lp30
F0.8387821083821082
aF0.8445453928389396
aF0.8340997630864214
aF0.836446159776724
aF0.8385446315562904
aF0.8383583481571495
aF0.8336498991537847
aF0.8353357441731659
aF0.840975756985005
aF0.8459584740296925
asS'NB_Naive_400_Macro_F'
p31
(lp32
F0.7043348125572476
aF0.7093300713755956
aF0.7100918433989647
aF0.6929438397990147
aF0.6973057727071058
aF0.6935786742191183
aF0.7093022031036924
aF0.7035238854283701
aF0.7065208466047526
aF0.699824961191668
asS'NB_Smote_1900_Macro_F'
p33
(lp34
F0.8502354909069126
aF0.8615400429078243
aF0.8496341332073885
aF0.8515890752879037
aF0.8490838950457187
aF0.8519076131964042
aF0.8538092930079899
aF0.8530143815185853
aF0.8548412320296741
aF0.8556651876790685
asS'NB_TunedLearner_1000_Macro_F'
p35
(lp36
F0.8280787810718755
aF0.827769441641856
aF0.8284973824717339
aF0.8422367979174671
aF0.8349162627772985
aF0.8274274387595768
aF0.8344111800775124
aF0.8249446340814017
aF0.8302910815472904
aF0.8315932121476453
asS'NB_TunedLearner_400_Macro_F'
p37
(lp38
F0.7337554472257629
aF0.7384240553609129
aF0.7468261756669442
aF0.7428512160741549
aF0.7476448062360843
aF0.7418626854844237
aF0.7328520327862666
aF0.7289434484343855
aF0.7510206078639786
aF0.7534728057687299
asS'NB_Smote_1000_Macro_F'
p39
(lp40
F0.8286323525669952
aF0.8319813337122354
aF0.8163300988919165
aF0.8356108292467095
aF0.8158461532349336
aF0.8222139233053054
aF0.8242021465638746
aF0.8222647836943349
aF0.8295292210033598
aF0.8282893973921219
asS'NB_Naive_1000_Macro_F'
p41
(lp42
F0.7796546241648615
aF0.7998557977271463
aF0.7806459880312634
aF0.7795926192345094
aF0.7703552590961669
aF0.7765960842794007
aF0.7791119273273088
aF0.7853646410298476
aF0.7912341466806134
aF0.7848167209977932
as.