(dp0
S'NB_TunedSmote_100_yes'
p1
(lp2
F0.6146341463414634
aF0.6510538641686182
aF0.6153846153846153
aF0.6329113924050632
aF0.6241134751773049
aF0.6403712296983758
aF0.6359223300970873
aF0.5906976744186047
aF0.6037735849056605
aF0.6517412935323383
asS'NB_TunedLearner_1000_yes'
p3
(lp4
F0.8264462809917354
aF0.8255813953488371
aF0.7818696883852692
aF0.8057142857142857
aF0.8179271708683473
aF0.8034188034188035
aF0.8154269972451791
aF0.8022922636103152
aF0.8086253369272237
aF0.8538011695906432
asS'NB_TunedSmote_1000_yes'
p5
(lp6
F0.8054794520547945
aF0.7934782608695651
aF0.7999999999999999
aF0.773841961852861
aF0.8238636363636362
aF0.8043478260869565
aF0.8101983002832861
aF0.7885714285714286
aF0.7880434782608694
aF0.7845303867403315
asS'NB_Smote_100_yes'
p7
(lp8
F0.6295399515738499
aF0.6213592233009708
aF0.5813953488372093
aF0.6291079812206571
aF0.6057906458797327
aF0.6258503401360543
aF0.6139534883720931
aF0.6261682242990654
aF0.625
aF0.616867469879518
asS'NB_TunedLearner_700_yes'
p9
(lp10
F0.8010899182561307
aF0.8011049723756906
aF0.8022284122562674
aF0.7944444444444444
aF0.752
aF0.808743169398907
aF0.784
aF0.770949720670391
aF0.8212290502793297
aF0.7811634349030472
asS'NB_TunedSmote_700_yes'
p11
(lp12
F0.7624020887728461
aF0.8068181818181819
aF0.7319587628865979
aF0.8089887640449438
aF0.7804878048780487
aF0.7667560321715818
aF0.7759562841530054
aF0.7922437673130195
aF0.7671232876712328
aF0.7901907356948229
asS'NB_Smote_700_yes'
p13
(lp14
F0.7934782608695651
aF0.784741144414169
aF0.7415143603133159
aF0.7675675675675676
aF0.7716535433070866
aF0.7435897435897437
aF0.7663043478260869
aF0.7816711590296496
aF0.7956989247311828
aF0.7867036011080333
asS'NB_Naive_100_yes'
p15
(lp16
F0.40404040404040403
aF0.368421052631579
aF0.48803827751196166
aF0.3645833333333333
aF0.5118483412322276
aF0.4059405940594059
aF0.4444444444444444
aF0.4466019417475728
aF0.4422110552763818
aF0.4422110552763818
asS'NB_Naive_400_yes'
p17
(lp18
F0.6311111111111111
aF0.5688073394495413
aF0.5648148148148149
aF0.5765765765765766
aF0.5514018691588786
aF0.5514018691588786
aF0.5740740740740741
aF0.5581395348837209
aF0.6194690265486725
aF0.6106194690265486
asS'NB_Naive_700_yes'
p19
(lp20
F0.6228070175438597
aF0.672340425531915
aF0.62882096069869
aF0.5806451612903226
aF0.5714285714285715
aF0.6315789473684211
aF0.6666666666666666
aF0.5688073394495413
aF0.5882352941176471
aF0.6126126126126126
asS'NB_TunedLearner_100_yes'
p21
(lp22
F0.6382978723404255
aF0.6379746835443039
aF0.6157303370786518
aF0.5910165484633569
aF0.6423357664233577
aF0.6125290023201856
aF0.6363636363636364
aF0.6238095238095238
aF0.6354679802955665
aF0.6187050359712231
asS'NB_Naive_1000_yes'
p23
(lp24
F0.6581196581196582
aF0.631578947368421
aF0.6160714285714286
aF0.5844748858447489
aF0.669527896995708
aF0.6126126126126126
aF0.6751054852320675
aF0.6283185840707965
aF0.6255506607929515
aF0.6343612334801763
asS'NB_Smote_1000_yes'
p25
(lp26
F0.8189415041782729
aF0.8021680216802168
aF0.7967914438502675
aF0.7783783783783784
aF0.7588075880758808
aF0.7872340425531914
aF0.7914438502673797
aF0.7759562841530054
aF0.7923497267759563
aF0.7977528089887641
asS'NB_TunedSmote_400_yes'
p27
(lp28
F0.7323232323232323
aF0.7893333333333333
aF0.7173913043478263
aF0.7434554973821988
aF0.7409326424870467
aF0.761904761904762
aF0.7619047619047621
aF0.7445652173913044
aF0.7272727272727272
aF0.746031746031746
asS'NB_Smote_400_yes'
p29
(lp30
F0.7566137566137566
aF0.7401574803149605
aF0.7175572519083969
aF0.7333333333333334
aF0.7254901960784315
aF0.7564766839378237
aF0.7384615384615385
aF0.7161803713527851
aF0.7688172043010754
aF0.7512953367875647
asS'NB_TunedLearner_400_yes'
p31
(lp32
F0.7721179624664879
aF0.7727272727272728
aF0.7142857142857143
aF0.7526315789473684
aF0.7680000000000001
aF0.7244897959183674
aF0.7667560321715817
aF0.7606382978723404
aF0.7391304347826086
aF0.770448548812665
as.