(dp0
S'NB_Naive_100_Macro_F'
p1
(lp2
F0.1106985698569857
aF0.1106985698569857
aF0.11074380165289258
aF0.1108354011579818
aF0.11088125775755067
aF0.1106985698569857
aF0.1106985698569857
aF0.11074380165289258
aF0.1108354011579818
aF0.11088125775755067
asS'NB_Naive_1300_Macro_F'
p3
(lp4
F0.2678292643637987
aF0.26226220441988585
aF0.2846524172676225
aF0.28551050353971275
aF0.28805314376004115
aF0.27209242323089994
aF0.2974134126433929
aF0.27461931070281054
aF0.28381260190778257
aF0.27680951084960276
asS'NB_Naive_400_Macro_F'
p5
(lp6
F0.25726114270085804
aF0.26277647110708735
aF0.2275327580340463
aF0.2283887762283355
aF0.26421343457760116
aF0.2621174217197818
aF0.22631381442070836
aF0.27185518924457275
aF0.2308024592277733
aF0.2702850750665551
asS'NB_Naive_1600_Macro_F'
p7
(lp8
F0.3080612880392672
aF0.28273129850241163
aF0.2696020495127993
aF0.26089220923930595
aF0.2784554589604513
aF0.27681836554290706
aF0.2912139788479917
aF0.27977298440205706
aF0.2535241711185963
aF0.29420526260945373
asS'NB_Naive_700_Macro_F'
p9
(lp10
F0.2558516365645001
aF0.26478957673509496
aF0.26658920442257433
aF0.25096509249679744
aF0.2833168882715954
aF0.2503659030804483
aF0.2752855382201228
aF0.2722899860908072
aF0.2704257152755195
aF0.2505868292122485
asS'NB_Naive_1900_Macro_F'
p11
(lp12
F0.2724338934547527
aF0.23185046891911817
aF0.27663982737759873
aF0.2770282699674647
aF0.2545016453577988
aF0.26402677507343053
aF0.26949149634312575
aF0.26406004326669
aF0.23914422636446958
aF0.27182742064192866
asS'NB_Naive_1000_Macro_F'
p13
(lp14
F0.25534232356134157
aF0.285717064074145
aF0.28831161621934775
aF0.27703698375530017
aF0.274541192723781
aF0.27505800747931325
aF0.2897458691621841
aF0.2678451838787137
aF0.2697430834048273
aF0.2685341004320505
as.