(dp0
S'Linear_SVM_Naive_700_yes'
p1
(lp2
F0.8615384615384616
aF0.8552803129074317
aF0.8710888610763454
aF0.8725868725868726
aF0.8608923884514436
aF0.8652118100128371
aF0.851994851994852
aF0.8703465982028242
aF0.8708010335917313
aF0.8622908622908623
asS'Linear_SVM_Naive_100_yes'
p3
(lp4
F0.7007299270072992
aF0.7120567375886525
aF0.7613941018766757
aF0.7298050139275767
aF0.6885714285714285
aF0.7134831460674157
aF0.7247579529737207
aF0.7418899858956276
aF0.70042194092827
aF0.7311522048364153
asS'Linear_SVM_Naive_400_yes'
p5
(lp6
F0.8421052631578948
aF0.8324607329842932
aF0.8331143232588698
aF0.8455497382198953
aF0.8672566371681416
aF0.8326848249027238
aF0.8644501278772379
aF0.8304405874499332
aF0.8654822335025382
aF0.8333333333333334
asS'Linear_SVM_Naive_1000_yes'
p7
(lp8
F0.8791773778920309
aF0.883248730964467
aF0.8716645489199492
aF0.8715953307392995
aF0.8753180661577608
aF0.8852040816326531
aF0.8911651728553137
aF0.8883248730964467
aF0.8611464968152867
aF0.8656330749354006
as.