(dp0
S'LinearSVM_Naive_700_yes'
p1
(lp2
F0.37696335078534027
aF0.29946524064171126
aF0.3711340206185567
aF0.31182795698924726
aF0.2857142857142857
aF0.30845771144278605
aF0.30769230769230765
aF0.3243243243243243
aF0.3814432989690722
aF0.2826086956521739
asS'LinearSVM_Naive_100_yes'
p3
(lp4
I0
aI0
aI0
aI0
aI0
aI0
aI0
aI0
aI0
aI0
asS'LinearSVM_Naive_400_yes'
p5
(lp6
F0.21301775147928992
aF0.14723926380368096
aF0.19883040935672516
aF0.11320754716981132
aF0.17177914110429446
aF0.20930232558139536
aF0.21301775147928995
aF0.17177914110429446
aF0.15853658536585363
aF0.1125
asS'LinearSVM_Naive_1000_yes'
p7
(lp8
F0.417910447761194
aF0.3979057591623037
aF0.336734693877551
aF0.4378109452736318
aF0.393939393939394
aF0.3684210526315789
aF0.4378109452736318
aF0.4682926829268292
aF0.34554973821989526
aF0.3402061855670103
as.