(dp0
S'LinearSVM_Naive_700_yes'
p1
(lp2
F0.6423562412342216
aF0.5647743813682677
aF0.6090775988286969
aF0.6115942028985507
aF0.6264044943820225
aF0.597997138769671
aF0.6318758815232722
aF0.5960665658093798
aF0.6203059805285117
aF0.6063218390804598
asS'LinearSVM_Naive_100_yes'
p3
(lp4
I0
aI0
aI0
aI0
aI0
aI0
aI0
aI0
aI0
aI0
asS'LinearSVM_Naive_400_yes'
p5
(lp6
F0.45182724252491696
aF0.4655737704918032
aF0.48445171849427177
aF0.4444444444444445
aF0.4645799011532125
aF0.4536423841059603
aF0.45182724252491696
aF0.5079872204472844
aF0.45499181669394434
aF0.46440677966101696
asS'LinearSVM_Naive_1000_yes'
p7
(lp8
F0.6431593794076162
aF0.631432545201669
aF0.649789029535865
aF0.6314285714285713
aF0.611190817790531
aF0.6138328530259367
aF0.6712141882673943
aF0.6285714285714286
aF0.6390041493775934
aF0.6297872340425532
as.