(dp0
S'LinearSVM_Naive_700_yes'
p1
(lp2
F0.9001349527665317
aF0.9103169251517195
aF0.9127516778523489
aF0.9092122830440587
aF0.8924731182795699
aF0.8937034529451592
aF0.9042196918955124
aF0.9093315684976837
aF0.9062710721510451
aF0.9076196898179366
asS'LinearSVM_Naive_100_yes'
p3
(lp4
F0.5848434925864909
aF0.5970873786407767
aF0.577814569536424
aF0.5590682196339434
aF0.5737439222042139
aF0.5864909390444809
aF0.5744855967078188
aF0.5840130505709624
aF0.591549295774648
aF0.5621445978878961
asS'LinearSVM_Naive_400_yes'
p5
(lp6
F0.7584229390681004
aF0.7517831669044224
aF0.7787114845938375
aF0.7632150615496016
aF0.7609475951184494
aF0.7519769949676492
aF0.7828571428571429
aF0.7754811119030649
aF0.7577903682719548
aF0.7578347578347577
asS'LinearSVM_Naive_1000_yes'
p7
(lp8
F0.9211398277004638
aF0.9137123745819398
aF0.9202947086403216
aF0.9103078982597055
aF0.9129568106312292
aF0.9092113982770046
aF0.9171717171717172
aF0.912
aF0.9131313131313131
aF0.9252336448598132
as.