(dp0
S'Linear_SVM_Naive_700_yes'
p1
(lp2
F0.8423005565862708
aF0.8395522388059702
aF0.8710280373831775
aF0.8458646616541354
aF0.8518518518518517
aF0.8582089552238806
aF0.8423005565862708
aF0.8619402985074628
aF0.8618181818181818
aF0.8349146110056928
asS'Linear_SVM_Naive_100_yes'
p3
(lp4
F0.08888888888888889
aF0.1329113924050633
aF0.13496932515337423
aF0.12578616352201258
aF0.18235294117647058
aF0.12738853503184713
aF0.11801242236024843
aF0.12883435582822086
aF0.1547987616099071
aF0.12844036697247707
asS'Linear_SVM_Naive_400_yes'
p5
(lp6
F0.7471264367816093
aF0.7480916030534351
aF0.7351778656126482
aF0.7360308285163776
aF0.7007874015748031
aF0.7125984251968505
aF0.7470817120622568
aF0.7519379844961239
aF0.722753346080306
aF0.7318982387475539
asS'Linear_SVM_Naive_1000_yes'
p7
(lp8
F0.861878453038674
aF0.846441947565543
aF0.8766114180478821
aF0.8576779026217228
aF0.8784029038112523
aF0.8961748633879781
aF0.8622540250447228
aF0.8772563176895306
aF0.8421052631578947
aF0.8439306358381503
as.