(dp0
S'LinearSVM_Naive_700_yes'
p1
(lp2
F0.8639455782312924
aF0.8571428571428571
aF0.8373702422145328
aF0.823529411764706
aF0.8350168350168351
aF0.8424657534246576
aF0.8571428571428571
aF0.8464163822525598
aF0.8493150684931507
aF0.8466666666666667
asS'LinearSVM_Naive_100_yes'
p3
(lp4
F0.6273062730627306
aF0.6484375
aF0.6772908366533865
aF0.743682310469314
aF0.7272727272727273
aF0.6791044776119404
aF0.6720647773279352
aF0.6666666666666666
aF0.6914498141263941
aF0.6814814814814815
asS'LinearSVM_Naive_400_yes'
p5
(lp6
F0.823943661971831
aF0.8153310104529616
aF0.7999999999999999
aF0.8140350877192982
aF0.8135593220338982
aF0.7808219178082192
aF0.8292682926829268
aF0.8187919463087248
aF0.8210526315789474
aF0.8125
asS'LinearSVM_Naive_1000_yes'
p7
(lp8
F0.8680555555555556
aF0.8362369337979093
aF0.8251748251748252
aF0.8562091503267973
aF0.8175675675675675
aF0.8350877192982455
aF0.8754208754208753
aF0.8438538205980067
aF0.7971014492753623
aF0.8680555555555556
as.