(dp0
S'LinearSVM_Naive_700_yes'
p1
(lp2
F0.6461538461538461
aF0.6251236399604352
aF0.695977549111319
aF0.6487006737247354
aF0.6473988439306358
aF0.6818613485280152
aF0.6610644257703081
aF0.6705653021442495
aF0.6355511420059583
aF0.6564885496183206
asS'LinearSVM_Naive_100_yes'
p3
(lp4
F0.05071315372424722
aF0.03821656050955414
aF0.04100946372239748
aF0.054226475279106866
aF0.04746835443037975
aF0.025477707006369428
aF0.06299212598425197
aF0.0380952380952381
aF0.051036682615629984
aF0.053797468354430375
asS'LinearSVM_Naive_400_yes'
p5
(lp6
F0.6120000000000001
aF0.601015228426396
aF0.5969849246231155
aF0.5696846388606307
aF0.5989847715736042
aF0.6031434184675835
aF0.6236559139784946
aF0.6127744510978045
aF0.5663157894736842
aF0.5903614457831325
asS'LinearSVM_Naive_1000_yes'
p7
(lp8
F0.6830188679245284
aF0.6848541862652869
aF0.6960690316395014
aF0.6907020872865276
aF0.6990825688073395
aF0.6729678638941399
aF0.7058823529411765
aF0.649706457925636
aF0.6758747697974218
aF0.7382053654024051
as.