(dp0
S'NB_Naive_400_Macro_F'
p1
(lp2
F0.11490822203768664
aF0.09437083365428107
asS'NB_TunedLearner_1000_Macro_F'
p3
(lp4
F0.2950151368973767
aF0.32267385251612996
asS'NB_Smote_100_Macro_F'
p5
(lp6
F0.2032192960286583
aF0.2000803315154949
asS'NB_Naive_700_Macro_F'
p7
(lp8
F0.11387278044193026
aF0.11865253387602147
asS'NB_Smote_700_Macro_F'
p9
(lp10
F0.29207017093776017
aF0.28367402865436697
asS'NB_Naive_100_Macro_F'
p11
(lp12
F0.06604204702720215
aF0.0919734855045829
asS'NB_TunedLearner_700_Macro_F'
p13
(lp14
F0.3162261352611023
aF0.29033088664291007
asS'NB_Naive_1000_Macro_F'
p15
(lp16
F0.11339781122635145
aF0.11087550565905056
asS'NB_Smote_400_Macro_F'
p17
(lp18
F0.29153033136021295
aF0.2902125370112396
asS'NB_TunedLearner_400_Macro_F'
p19
(lp20
F0.29536881867891207
aF0.2981616066349313
asS'NB_Smote_1000_Macro_F'
p21
(lp22
F0.3148399731525647
aF0.3008119329687165
asS'NB_TunedLearner_100_Macro_F'
p23
(lp24
F0.2209868206943158
aF0.22292475556125851
as.