(dp0
S'NB_TunedSmote_100_yes'
p1
(lp2
F0.24981577008106118
aF0.2288282060145178
aF0.26273684210526316
aF0.2305764411027569
aF0.22515140719629495
aF0.2355475763016158
aF0.23368964246221893
aF0.2343159486016629
aF0.25458996328029376
aF0.24061302681992336
asS'NB_TunedLearner_1000_yes'
p3
(lp4
F0.5137491616364855
aF0.5143979057591623
aF0.5175675675675676
aF0.49646302250803853
aF0.4895635673624288
aF0.5056553559547572
aF0.48753117206982544
aF0.5175380542686961
aF0.5176784523015343
aF0.5095206828627707
asS'NB_TunedSmote_1000_yes'
p5
(lp6
F0.49713922441195163
aF0.5140983606557377
aF0.5171467764060357
aF0.5064935064935064
aF0.4960732984293194
aF0.5179760319573902
aF0.49458253664754626
aF0.5100401606425703
aF0.49806451612903224
aF0.5042125729099157
asS'NB_Smote_100_yes'
p7
(lp8
F0.24823805794831633
aF0.24788948580199538
aF0.24358483339716583
aF0.24864024864024864
aF0.23498098859315586
aF0.24294478527607363
aF0.24743833017077801
aF0.23628048780487804
aF0.24829674489023465
aF0.24305555555555558
asS'NB_TunedLearner_700_yes'
p9
(lp10
F0.47266099635479947
aF0.4743034055727554
aF0.46378575776019476
aF0.46357615894039733
aF0.47619047619047616
aF0.4658385093167702
aF0.47525962125839954
aF0.4640483383685801
aF0.46337105419892793
aF0.4798512089274643
asS'NB_TunedSmote_700_yes'
p11
(lp12
F0.4354460093896713
aF0.4566744730679157
aF0.4550625711035267
aF0.4766063630692452
aF0.459508098380324
aF0.48048780487804876
aF0.4717325227963526
aF0.4412275622466704
aF0.4486422668240849
aF0.4353276353276353
asS'NB_Smote_700_yes'
p13
(lp14
F0.46508803885853073
aF0.4570426651081239
aF0.46622032866707247
aF0.46228123114061553
aF0.44979448032883146
aF0.4516880093131549
aF0.4655894673847995
aF0.45029940119760475
aF0.45575757575757575
aF0.4665461121157323
asS'NB_Naive_100_yes'
p15
(lp16
I0
aI0
aI0
aI0
aI0
aI0
aI0
aI0
aI0
aI0
asS'NB_Naive_400_yes'
p17
(lp18
F0.0048543689320388345
aF0.0048543689320388345
aF0.009685230024213076
aI0
aF0.009685230024213076
aI0
aF0.009685230024213076
aF0.009685230024213076
aF0.009685230024213076
aI0
asS'NB_Naive_700_yes'
p19
(lp20
F0.10599078341013825
aF0.07494145199063232
aF0.10599078341013825
aF0.09722222222222222
aF0.10161662817551963
aF0.10161662817551963
aF0.0794392523364486
aF0.0794392523364486
aF0.11467889908256881
aF0.10161662817551963
asS'NB_TunedLearner_100_yes'
p21
(lp22
F0.24047796863330842
aF0.24673872530749158
aF0.2472077438570365
aF0.25389585708855944
aF0.24791508718726307
aF0.24210125618576325
aF0.24640354112873478
aF0.2561021404431093
aF0.24980784012298232
aF0.24466891133557803
asS'NB_Naive_1000_yes'
p23
(lp24
F0.2725366876310273
aF0.32048681541582147
aF0.2791666666666667
aF0.3177189409368635
aF0.28274428274428276
aF0.3080082135523614
aF0.3142857142857143
aF0.2531645569620253
aF0.3080082135523614
aF0.3039014373716632
asS'NB_Smote_1000_yes'
p25
(lp26
F0.5188118811881189
aF0.5149456521739131
aF0.4958360025624599
aF0.49518922386144965
aF0.5061969993476843
aF0.5059132720105124
aF0.5036160420775806
aF0.5157894736842106
aF0.4950884086444008
aF0.512720156555773
asS'NB_TunedSmote_400_yes'
p27
(lp28
F0.41430192962542567
aF0.42256764536557284
aF0.4069077172153265
aF0.38592860838075527
aF0.4014675052410902
aF0.40149094781682637
aF0.40611353711790393
aF0.4182933630786391
aF0.3894899536321484
aF0.4038982133188956
asS'NB_Smote_400_yes'
p29
(lp30
F0.4154431756389342
aF0.4106844741235392
aF0.4041850220264317
aF0.4088888888888889
aF0.40021401819154634
aF0.4065573770491803
aF0.39957150508837697
aF0.4035476718403548
aF0.42046093310848787
aF0.4148641153632834
asS'NB_TunedLearner_400_yes'
p31
(lp32
F0.3963771976558338
aF0.43137254901960786
aF0.4256756756756757
aF0.4151785714285714
aF0.4008620689655173
aF0.4253192670738478
aF0.41904761904761906
aF0.41317699609156894
aF0.40426666666666666
aF0.4092186621697583
as.