(dp0
S'NB_Naive_100_yes'
p1
(lp2
I0
aI0
aI0
aI0
aI0
aI0
aI0
aI0
aI0
aI0
asS'NB_Naive_400_yes'
p3
(lp4
I0
aF0.014492753623188404
aF0.0048543689320388345
aF0.0048543689320388345
aF0.009685230024213076
aF0.009685230024213076
aF0.0048543689320388345
aF0.0048543689320388345
aI0
aF0.0048543689320388345
asS'NB_Naive_700_yes'
p5
(lp6
F0.09722222222222222
aF0.06588235294117648
aF0.09280742459396753
aF0.09722222222222222
aF0.11899313501144167
aF0.1103448275862069
aF0.06132075471698113
aF0.09280742459396753
aF0.1103448275862069
aF0.09722222222222222
asS'NB_Naive_1000_yes'
p7
(lp8
F0.32661290322580644
aF0.26415094339622647
aF0.2689075630252101
aF0.28690228690228686
aF0.3380281690140845
aF0.2803347280334728
aF0.28630705394190875
aF0.3177189409368635
aF0.2785862785862786
aF0.2997946611909651
as.