(dp0
S'NB_TunedSmote_100_yes'
p1
(lp2
F0.11522872032426172
aF0.14171511627906974
aF0.1333775713337757
aF0.13297333783327708
aF0.12351688469729237
aF0.13385826771653545
aF0.1320754716981132
aF0.12797910545217106
aF0.13153456998313656
aF0.13264248704663212
asS'NB_TunedLearner_1000_yes'
p3
(lp4
F0.23750671681891455
aF0.24324324324324326
aF0.24065934065934064
aF0.238069116840373
aF0.24541284403669725
aF0.23657080846446013
aF0.239514348785872
aF0.24340998317442517
aF0.24053452115812918
aF0.2417218543046358
asS'NB_TunedSmote_1000_yes'
p5
(lp6
F0.23742227247032222
aF0.26214160327677
aF0.2332613390928726
aF0.24742268041237112
aF0.23965141612200436
aF0.2530755711775044
aF0.2508710801393728
aF0.24208772903942258
aF0.25133372851215174
aF0.2547770700636942
asS'NB_Smote_100_yes'
p7
(lp8
F0.13433858807402332
aF0.12761647535449022
aF0.14032650225772836
aF0.13961988304093567
aF0.14147431124348475
aF0.13115868161739722
aF0.13388831078737426
aF0.1342038447587958
aF0.1437861271676301
aF0.13067400275103164
asS'NB_TunedLearner_700_yes'
p9
(lp10
F0.23312236286919835
aF0.22689075630252103
aF0.21766561514195587
aF0.22384937238493724
aF0.2332268370607029
aF0.23068669527896998
aF0.23206751054852326
aF0.22631578947368422
aF0.22373235755358079
aF0.22018348623853212
asS'NB_TunedSmote_700_yes'
p11
(lp12
F0.22966507177033493
aF0.21478521478521478
aF0.22071129707112971
aF0.2302006335797254
aF0.23827909542195258
aF0.2505773672055427
aF0.218
aF0.22152886115444617
aF0.2434881087202718
aF0.2310969116080937
asS'NB_Smote_700_yes'
p13
(lp14
F0.2315562735595046
aF0.22199062011464304
aF0.2217680122636689
aF0.2319309600862999
aF0.22653061224489798
aF0.22736625514403294
aF0.23122636412749867
aF0.2263759086188993
aF0.22210743801652896
aF0.22395833333333334
asS'NB_Naive_100_yes'
p15
(lp16
I0
aI0
aI0
aI0
aI0
aI0
aI0
aI0
aI0
aI0
asS'NB_Naive_400_yes'
p17
(lp18
I0
aI0
aI0
aI0
aI0
aI0
aI0
aI0
aI0
aI0
asS'NB_Naive_700_yes'
p19
(lp20
I0
aF0.008771929824561403
aI0
aI0
aF0.017621145374449337
aI0
aI0
aF0.008849557522123894
aF0.008849557522123894
aF0.008771929824561405
asS'NB_TunedLearner_100_yes'
p21
(lp22
F0.13117932148626815
aF0.13741496598639455
aF0.13617021276595745
aF0.13468453743053285
aF0.12774320340648543
aF0.13320013320013321
aF0.12760659819483347
aF0.1336420774065498
aF0.13461538461538464
aF0.13195601466177942
asS'NB_Naive_1000_yes'
p23
(lp24
F0.034632034632034625
aF0.043103448275862065
aF0.034482758620689655
aF0.05194805194805195
aF0.03463203463203463
aF0.034632034632034625
aF0.017543859649122806
aF0.043290043290043295
aF0.05172413793103449
aF0.05128205128205129
asS'NB_Smote_1000_yes'
p25
(lp26
F0.24662162162162166
aF0.2376779846659365
aF0.22987288135593217
aF0.24351747463359644
aF0.23786142935079105
aF0.2422184493491794
aF0.2443693693693694
aF0.2403480152256661
aF0.24313725490196078
aF0.23064602242391882
asS'NB_TunedSmote_400_yes'
p27
(lp28
F0.2052505966587112
aF0.20389249304911955
aF0.2008567348881485
aF0.19687212511499538
aF0.18614718614718614
aF0.19310970081595646
aF0.20259019426456984
aF0.19750807568066453
aF0.19043401240035426
aF0.19191470457574414
asS'NB_Smote_400_yes'
p29
(lp30
F0.19545454545454546
aF0.19812206572769953
aF0.20056497175141244
aF0.19196428571428573
aF0.20388809862494076
aF0.19322799097065463
aF0.20027560863573726
aF0.19249887031179394
aF0.19898664210041456
aF0.20095693779904306
asS'NB_TunedLearner_400_yes'
p31
(lp32
F0.19728845254791957
aF0.19916240111679848
aF0.19633027522935778
aF0.20584011488750598
aF0.2032786885245902
aF0.1942446043165468
aF0.20616570327552985
aF0.195077484047402
aF0.21001926782273606
aF0.20225776105362184
as.