(dp0
S'NB_TunedSmote_100_yes'
p1
(lp2
F0.4628099173553719
aF0.4804928131416838
aF0.48979591836734687
aF0.4878048780487806
aF0.48068669527897
aF0.45804988662131524
aF0.45076586433260396
aF0.4772234273318873
aF0.4728033472803347
aF0.5361305361305361
asS'NB_TunedLearner_1000_yes'
p3
(lp4
F0.7566137566137566
aF0.7627118644067797
aF0.7492625368731564
aF0.7704918032786885
aF0.7692307692307693
aF0.7443181818181818
aF0.7578347578347578
aF0.7632311977715878
aF0.753315649867374
aF0.7836257309941521
asS'NB_TunedSmote_1000_yes'
p5
(lp6
F0.7465181058495821
aF0.7485380116959064
aF0.7564469914040114
aF0.7675070028011205
aF0.7521367521367521
aF0.7138964577656676
aF0.7943661971830984
aF0.7705882352941177
aF0.7666666666666666
aF0.7632311977715878
asS'NB_Smote_100_yes'
p7
(lp8
F0.41984732824427484
aF0.4857142857142857
aF0.45985401459854014
aF0.4741784037558686
aF0.44176706827309237
aF0.4513618677042802
aF0.45048543689320386
aF0.48319327731092426
aF0.4609375
aF0.44534412955465585
asS'NB_TunedLearner_700_yes'
p9
(lp10
F0.6839378238341969
aF0.7453083109919572
aF0.7616438356164383
aF0.7317073170731708
aF0.7563025210084034
aF0.7704918032786885
aF0.7301587301587301
aF0.7178082191780822
aF0.7472527472527473
aF0.7277486910994763
asS'NB_TunedSmote_700_yes'
p11
(lp12
F0.7307692307692307
aF0.7052631578947367
aF0.7359550561797752
aF0.7603305785123967
aF0.7436619718309858
aF0.7549295774647886
aF0.7277777777777777
aF0.7065217391304348
aF0.7422096317280453
aF0.7119565217391304
asS'NB_Smote_700_yes'
p13
(lp14
F0.7301587301587301
aF0.744186046511628
aF0.683937823834197
aF0.7557840616966581
aF0.7365591397849462
aF0.7546174142480211
aF0.7411444141689372
aF0.7499999999999999
aF0.6997389033942558
aF0.6894736842105265
asS'NB_Naive_100_yes'
p15
(lp16
I0
aI0
aI0
aI0
aI0
aI0
aI0
aI0
aI0
aI0
asS'NB_Naive_400_yes'
p17
(lp18
F0.012903225806451613
aF0.13414634146341461
aF0.05095541401273886
aF0.1111111111111111
aF0.06329113924050632
aF0.08695652173913045
aF0.07547169811320754
aF0.07547169811320754
aF0.06329113924050632
aF0.09937888198757763
asS'NB_Naive_700_yes'
p19
(lp20
F0.155688622754491
aF0.1226993865030675
aF0.11042944785276074
aF0.17857142857142855
aF0.16766467065868265
aF0.1988304093567251
aF0.1226993865030675
aF0.1111111111111111
aF0.13414634146341461
aF0.21052631578947367
asS'NB_TunedLearner_100_yes'
p21
(lp22
F0.4701030927835052
aF0.5136842105263157
aF0.5178571428571429
aF0.47679324894514774
aF0.46540880503144655
aF0.46934460887949264
aF0.4864864864864865
aF0.5010706638115631
aF0.4741379310344827
aF0.5041666666666667
asS'NB_Naive_1000_yes'
p23
(lp24
F0.24000000000000002
aF0.14545454545454545
aF0.17857142857142855
aF0.22093023255813954
aF0.21052631578947367
aF0.18823529411764706
aF0.2711864406779661
aF0.14545454545454545
aF0.1566265060240964
aF0.1566265060240964
asS'NB_Smote_1000_yes'
p25
(lp26
F0.7493112947658402
aF0.7650273224043715
aF0.7405247813411078
aF0.7499999999999999
aF0.7627118644067797
aF0.7878787878787878
aF0.7409470752089138
aF0.7679558011049723
aF0.7084468664850138
aF0.7752808988764045
asS'NB_TunedSmote_400_yes'
p27
(lp28
F0.6466165413533834
aF0.664935064935065
aF0.6472019464720195
aF0.6926829268292684
aF0.6494845360824743
aF0.6419753086419753
aF0.6548223350253807
aF0.6214099216710183
aF0.6817042606516291
aF0.6529562982005142
asS'NB_Smote_400_yes'
p29
(lp30
F0.675392670157068
aF0.6764705882352942
aF0.6701846965699209
aF0.6320754716981133
aF0.6363636363636364
aF0.6550868486352358
aF0.6683937823834197
aF0.6433566433566434
aF0.6840731070496083
aF0.645320197044335
asS'NB_TunedLearner_400_yes'
p31
(lp32
F0.6633416458852868
aF0.6481012658227847
aF0.6748768472906405
aF0.6454767726161369
aF0.6768447837150128
aF0.699228791773779
aF0.6802030456852792
aF0.6932668329177056
aF0.6403940886699508
aF0.6277372262773722
as.