(dp0
S'NB_Naive_100_Macro_F'
p1
(lp2
F0.11405386124487248
aF0.11406208188386405
aF0.11406971298588345
aF0.11407734510905929
aF0.11408497825359654
aF0.11405386124487248
aF0.11406208188386405
aF0.11406971298588345
aF0.11407734510905929
aF0.11408497825359654
asS'NB_Naive_1300_Macro_F'
p3
(lp4
F0.21248850392851729
aF0.18884279447998023
aF0.2222099815699224
aF0.1780547969605512
aF0.22917606901079998
aF0.22695370457243932
aF0.19961636587580106
aF0.16879390658670704
aF0.23172989011622763
aF0.23094552497501442
asS'NB_Naive_400_Macro_F'
p5
(lp6
F0.18683588350674019
aF0.11406208188386405
aF0.2013272762974984
aF0.23912507030223218
aF0.2012046480530847
aF0.20119317942408932
aF0.1811215262493823
aF0.2013272762974984
aF0.2013300612343901
aF0.11408497825359654
asS'NB_Naive_1600_Macro_F'
p7
(lp8
F0.2460554603586037
aF0.250722267305599
aF0.2331925375008743
aF0.2505275465019859
aF0.23407408864343218
aF0.21152110511158706
aF0.24551280194355887
aF0.2435596598046503
aF0.2436083653510742
aF0.2390457363472373
asS'NB_Naive_700_Macro_F'
p9
(lp10
F0.20170481819244657
aF0.1950072726756502
aF0.23514175463291592
aF0.19229656397185269
aF0.18685023103900342
aF0.2349101543938656
aF0.20221913233084574
aF0.19229335763638583
aF0.16853392577571039
aF0.1938445957351038
asS'NB_Naive_1900_Macro_F'
p11
(lp12
F0.2529518389991004
aF0.2550186298499569
aF0.20357452357841746
aF0.24776813640973433
aF0.2361445461505667
aF0.23755161965658228
aF0.2394092130016053
aF0.2438713285659211
aF0.2545446049117846
aF0.23808550918457744
asS'NB_Naive_1000_Macro_F'
p13
(lp14
F0.19055862129242504
aF0.1871530315099852
aF0.24995236204142265
aF0.22595237922689254
aF0.24310880170309046
aF0.23742938260935537
aF0.20801242409603735
aF0.21491011393834308
aF0.22404017690659564
aF0.2259349025568534
as.