(dp0
S'NB_Naive_100_Macro_F'
p1
(lp2
F0.12778535698044563
aF0.12780120731001407
aF0.12781706157217881
aF0.12782328121121866
aF0.12783914608415045
aF0.12778535698044563
aF0.12780120731001407
aF0.12781706157217881
aF0.12782328121121866
aF0.12783914608415045
asS'NB_Naive_1300_Macro_F'
p3
(lp4
F0.3386408038878557
aF0.3313896120794318
aF0.33735161680607656
aF0.33426541198021914
aF0.3247083263787377
aF0.3247133105068745
aF0.33851239447327514
aF0.3267782610070595
aF0.32888424354531337
aF0.33297521742862923
asS'NB_Naive_400_Macro_F'
p5
(lp6
F0.2468099376061601
aF0.23384257877261463
aF0.2381372819364458
aF0.24262531692933131
aF0.24399677391695235
aF0.23761040060372632
aF0.24542200395621525
aF0.2336274691791476
aF0.22654980565333183
aF0.2478107946507035
asS'NB_Naive_1600_Macro_F'
p7
(lp8
F0.3399012475551078
aF0.3331306400252523
aF0.3290030861266416
aF0.3606040984398169
aF0.3302321179905736
aF0.3645420445829268
aF0.33777509832734015
aF0.3384517568759634
aF0.32427276315938625
aF0.33295813412951053
asS'NB_Naive_700_Macro_F'
p9
(lp10
F0.30742204022938735
aF0.309492737060233
aF0.28383138342344594
aF0.31270045489293635
aF0.3199398757893861
aF0.3030621993676248
aF0.31510239033135873
aF0.3159470854014121
aF0.2939160864474203
aF0.3192302396469672
asS'NB_Naive_1900_Macro_F'
p11
(lp12
F0.3612966164015538
aF0.3459323997482927
aF0.35501074508682506
aF0.3386740207169031
aF0.37656181720267556
aF0.35614399770336913
aF0.3537620048276074
aF0.3576393212287927
aF0.3523358142090962
aF0.34991384970864997
asS'NB_Naive_1000_Macro_F'
p13
(lp14
F0.316458023272513
aF0.31433454224304025
aF0.32135123290326756
aF0.29217048745637975
aF0.33814767731070117
aF0.32248440592498806
aF0.3422498508417868
aF0.3077557025084696
aF0.3228987920928553
aF0.3156875441135725
as.