(dp0
S'NB_Naive_100_Macro_F'
p1
(lp2
F0.13792819159899417
aF0.13793956383724285
aF0.1379452506596306
aF0.13794288227371426
aF0.1379542580680631
aF0.13792819159899417
aF0.13793956383724285
aF0.1379452506596306
aF0.13794288227371426
aF0.1379542580680631
asS'NB_Naive_1300_Macro_F'
p3
(lp4
F0.4582870624832053
aF0.45427644681569046
aF0.4620850710294743
aF0.4923638238421986
aF0.4944077067978603
aF0.45527459932750813
aF0.45417538510442307
aF0.465338607173531
aF0.4573636569858095
aF0.49591955171793345
asS'NB_Naive_400_Macro_F'
p5
(lp6
F0.35219143913284695
aF0.35064811998905676
aF0.38564762680842374
aF0.3468201810699324
aF0.34316378233334727
aF0.35388775197854605
aF0.38451370534817897
aF0.3454015748042416
aF0.35043150833317505
aF0.3495649220276173
asS'NB_Naive_1600_Macro_F'
p7
(lp8
F0.504289777317332
aF0.4762575954355373
aF0.489203719201195
aF0.5262004599731046
aF0.5180393233122635
aF0.5140757856547529
aF0.5149512562533223
aF0.519358508089679
aF0.50514546283495
aF0.49086995123781063
asS'NB_Naive_700_Macro_F'
p9
(lp10
F0.4109718790082531
aF0.42338386839711634
aF0.41559719333547646
aF0.41731451805712205
aF0.41737603925842687
aF0.3969533919427929
aF0.40360761613925844
aF0.42082219546459304
aF0.42227624468480696
aF0.4191787364772924
asS'NB_Naive_1900_Macro_F'
p11
(lp12
F0.5046239249068302
aF0.48160795819329477
aF0.4806833858791271
aF0.5261160329209715
aF0.5129132402249086
aF0.520712038028757
aF0.5258326738295205
aF0.4942664386485036
aF0.48389275356171374
aF0.5073019215691822
asS'NB_Naive_1000_Macro_F'
p13
(lp14
F0.46422068918472065
aF0.4532296873527388
aF0.49732100485878494
aF0.45773104311940455
aF0.4588253608117028
aF0.4572455920006269
aF0.45987933590393537
aF0.4601786147250423
aF0.46196956786869586
aF0.49176347952996496
as.